

Microchip MPLAB XC8 Assembler V2.45 build 20230818022343 
                                                                                               Sun May 12 17:12:56 2024

Microchip MPLAB XC8 C Compiler v2.45 (Free license) build 20230818022343 Og1 
     1                           	processor	18F4620
     2                           	fnconf	rparam,??,?,0
     3                           	pagewidth 120
     4                           	opt	flic
     5                           	psect	idataCOMRAM,global,class=CODE,delta=1,noexec
     6                           	psect	idataBANK0,global,class=CODE,delta=1,noexec
     7                           	psect	smallconst,global,reloc=2,class=SMALLCONST,delta=1,noexec
     8                           	psect	cinit,global,reloc=2,class=CODE,delta=1
     9                           	psect	bssCOMRAM,global,class=COMRAM,space=1,delta=1,lowdata,noexec
    10                           	psect	dataCOMRAM,global,class=COMRAM,space=1,delta=1,lowdata,noexec
    11                           	psect	bssBANK0,global,class=BANK0,space=1,delta=1,lowdata,noexec
    12                           	psect	dataBANK0,global,class=BANK0,space=1,delta=1,lowdata,noexec
    13                           	psect	cstackCOMRAM,global,class=COMRAM,space=1,delta=1,lowdata,noexec
    14                           	psect	text0,global,reloc=2,class=CODE,delta=1
    15                           	psect	text1,global,reloc=2,class=CODE,delta=1
    16                           	psect	intcode,global,reloc=2,class=CODE,delta=1
    17                           	psect	intcode_body,global,reloc=2,class=CODE,delta=1
    18                           	psect	text3,global,reloc=2,class=CODE,delta=1
    19                           	psect	text4,global,reloc=2,class=CODE,delta=1
    20                           	psect	text5,global,reloc=2,class=CODE,delta=1
    21                           	psect	text6,global,reloc=2,class=CODE,delta=1
    22                           	psect	text7,global,reloc=2,class=CODE,delta=1
    23                           	psect	text8,global,reloc=2,class=CODE,delta=1
    24                           	psect	text9,global,reloc=2,class=CODE,delta=1
    25                           	psect	text10,global,reloc=2,class=CODE,delta=1
    26                           	psect	text11,global,reloc=2,class=CODE,delta=1
    27                           	psect	text12,global,reloc=2,class=CODE,delta=1
    28                           	psect	text13,global,reloc=2,class=CODE,delta=1
    29                           	psect	text14,global,reloc=2,class=CODE,delta=1
    30                           	psect	text15,global,reloc=2,class=CODE,delta=1
    31                           	psect	text16,global,reloc=2,class=CODE,delta=1
    32                           	psect	text17,global,reloc=2,class=CODE,delta=1
    33                           	psect	text18,global,reloc=2,class=CODE,delta=1
    34                           	psect	text19,global,reloc=2,class=CODE,delta=1
    35                           	psect	text20,global,reloc=2,class=CODE,delta=1
    36                           	psect	intsave_regs,global,class=BIGRAM,space=1,delta=1,noexec
    37                           	psect	rparam,global,class=COMRAM,space=1,delta=1,noexec
    38                           	psect	temp,global,ovrld,common,class=COMRAM,space=1,delta=1
    39                           	psect	config,global,abs,ovrld,class=CONFIG,space=4,delta=1,noexec
    40   000000                     
    41                           ; Generated 23/03/2023 GMT
    42                           ; 
    43                           ; Copyright © 2023, Microchip Technology Inc. and its subsidiaries ("Microchip")
    44                           ; All rights reserved.
    45                           ; 
    46                           ; This software is developed by Microchip Technology Inc. and its subsidiaries ("Microch
      +                          ip").
    47                           ; 
    48                           ; Redistribution and use in source and binary forms, with or without modification, are
    49                           ; permitted provided that the following conditions are met:
    50                           ; 
    51                           ;     1. Redistributions of source code must retain the above copyright notice, this lis
      +                          t of
    52                           ;        conditions and the following disclaimer.
    53                           ; 
    54                           ;     2. Redistributions in binary form must reproduce the above copyright notice, this 
      +                          list
    55                           ;        of conditions and the following disclaimer in the documentation and/or other
    56                           ;        materials provided with the distribution. Publication is not required when
    57                           ;        this file is used in an embedded application.
    58                           ; 
    59                           ;     3. Microchip's name may not be used to endorse or promote products derived from th
      +                          is
    60                           ;        software without specific prior written permission.
    61                           ; 
    62                           ; THIS SOFTWARE IS PROVIDED BY MICROCHIP "AS IS" AND ANY EXPRESS OR IMPLIED WARRANTIES,
    63                           ; INCLUDING, BUT NOT LIMITED TO, THE IMPLIED WARRANTIES OF MERCHANTABILITY AND FITNESS F
      +                          OR
    64                           ; PURPOSE ARE DISCLAIMED.  IN NO EVENT SHALL MICROCHIP BE LIABLE FOR ANY DIRECT, INDIREC
      +                          T,
    65                           ; INCIDENTAL, SPECIAL, EXEMPLARY, OR CONSEQUENTIAL DAMAGES (INCLUDING BUT NOT LIMITED TO
    66                           ; PROCUREMENT OF SUBSTITUTE GOODS OR SERVICES; LOSS OF USE, DATA OR PROFITS; OR BUSINESS
    67                           ; INTERRUPTION) HOWSOEVER CAUSED AND ON ANY THEORY OF LIABILITY, WHETHER IN CONTRACT, ST
      +                          RICT
    68                           ; LIABILITY, OR TORT (INCLUDING NEGLIGENCE OR OTHERWISE) ARISING IN ANY WAY OUT OF THE U
      +                          SE OF
    69                           ; THIS SOFTWARE, EVEN IF ADVISED OF THE POSSIBILITY OF SUCH DAMAGE.
    70                           ; 
    71                           ; 
    72                           ; Code-generator required, PIC18F4620 Definitions
    73                           ; 
    74                           ; SFR Addresses
    75   000000                     
    76                           	psect	idataCOMRAM
    77   001460                     __pidataCOMRAM:
    78                           	callstack 0
    79                           
    80                           ;initializer for _LAT_REGESTERS
    81   001460  89                 	db	137
    82   001461  0F                 	db	15
    83   001462  8A                 	db	138
    84   001463  0F                 	db	15
    85   001464  8B                 	db	139
    86   001465  0F                 	db	15
    87   001466  8C                 	db	140
    88   001467  0F                 	db	15
    89   001468  8D                 	db	141
    90   001469  0F                 	db	15
    91                           
    92                           ;initializer for _TRIS_REGESTERS
    93   00146A  92                 	db	146
    94   00146B  0F                 	db	15
    95   00146C  93                 	db	147
    96   00146D  0F                 	db	15
    97   00146E  94                 	db	148
    98   00146F  0F                 	db	15
    99   001470  95                 	db	149
   100   001471  0F                 	db	15
   101   001472  96                 	db	150
   102   001473  0F                 	db	15
   103                           
   104                           ;initializer for MSSP_SPI_Slave_Mode_GPIO_PIN_Configurations@F3117
   105   001474  68                 	db	104
   106                           
   107                           ;initializer for MSSP_SPI_Slave_Mode_GPIO_PIN_Configurations@F3115
   108   001475  5A                 	db	90
   109                           
   110                           ;initializer for MSSP_SPI_Slave_Mode_GPIO_PIN_Configurations@F3113
   111   001476  62                 	db	98
   112                           
   113                           ;initializer for MSSP_SPI_Slave_Mode_GPIO_PIN_Configurations@F3111
   114   001477  2A                 	db	42
   115                           
   116                           ;initializer for MSSP_SPI_Msster_Mode_GPIO_PIN_Configurations@F3106
   117   001478  1A                 	db	26
   118                           
   119                           ;initializer for MSSP_SPI_Msster_Mode_GPIO_PIN_Configurations@F3104
   120   001479  62                 	db	98
   121                           
   122                           ;initializer for MSSP_SPI_Msster_Mode_GPIO_PIN_Configurations@F3102
   123   00147A  2A                 	db	42
   124                           
   125                           ;initializer for _RB7_Flag
   126   00147B  01                 	db	1
   127                           
   128                           ;initializer for _RB6_Flag
   129   00147C  01                 	db	1
   130                           
   131                           ;initializer for _RB5_Flag
   132   00147D  01                 	db	1
   133                           
   134                           ;initializer for _RB4_Flag
   135   00147E  01                 	db	1
   136                           
   137                           	psect	idataBANK0
   138   001518                     __pidataBANK0:
   139                           	callstack 0
   140                           
   141                           ;initializer for _PORT_REGESTERS
   142   001518  80                 	db	128
   143   001519  0F                 	db	15
   144   00151A  81                 	db	129
   145   00151B  0F                 	db	15
   146   00151C  82                 	db	130
   147   00151D  0F                 	db	15
   148   00151E  83                 	db	131
   149   00151F  0F                 	db	15
   150   001520  84                 	db	132
   151   001521  0F                 	db	15
   152                           
   153                           	psect	smallconst
   154   001000                     __psmallconst:
   155                           	callstack 0
   156   001000  00                 	db	0
   157   001001                     _btn_values:
   158                           	callstack 0
   159   001001  37                 	db	55
   160   001002  38                 	db	56
   161   001003  39                 	db	57
   162   001004  2F                 	db	47
   163   001005  34                 	db	52
   164   001006  35                 	db	53
   165   001007  36                 	db	54
   166   001008  2A                 	db	42
   167   001009  31                 	db	49
   168   00100A  32                 	db	50
   169   00100B  33                 	db	51
   170   00100C  2D                 	db	45
   171   00100D  23                 	db	35
   172   00100E  30                 	db	48
   173   00100F  3D                 	db	61
   174   001010  2B                 	db	43
   175   001011                     __end_of_btn_values:
   176                           	callstack 0
   177   000000                     _SSPADD	set	4040
   178   000000                     _SSPCON2bits	set	4037
   179   000000                     _SPBRGH	set	4016
   180   000000                     _SPBRG	set	4015
   181   000000                     _TXREG	set	4013
   182   000000                     _TXSTAbits	set	4012
   183   000000                     _RCREG	set	4014
   184   000000                     _RCSTAbits	set	4011
   185   000000                     _TMR3L	set	4018
   186   000000                     _TMR3H	set	4019
   187   000000                     _TMR2	set	4044
   188   000000                     _T2CONbits	set	4042
   189   000000                     _TMR1L	set	4046
   190   000000                     _TMR1H	set	4047
   191   000000                     _T1CONbits	set	4045
   192   000000                     _TMR0L	set	4054
   193   000000                     _TMR0H	set	4055
   194   000000                     _T0CONbits	set	4053
   195   000000                     _SSPBUF	set	4041
   196   000000                     _SSPSTATbits	set	4039
   197   000000                     _SSPCON1bits	set	4038
   198   000000                     _INTCON2bits	set	4081
   199   000000                     _INTCON3bits	set	4080
   200   000000                     _EECON2	set	4007
   201   000000                     _ADCON1bits	set	4033
   202   000000                     _ADRESL	set	4035
   203   000000                     _ADRESH	set	4036
   204   000000                     _INTCONbits	set	4082
   205   000000                     _TRISD	set	3989
   206   000000                     _TRISC	set	3988
   207   000000                     _PR2	set	4043
   208   000000                     _TRISB	set	3987
   209   000000                     _TRISE	set	3990
   210   000000                     _TRISCbits	set	3988
   211   000000                     _PORTBbits	set	3969
   212   000000                     _PIE1bits	set	3997
   213   000000                     _ADCON2bits	set	4032
   214   000000                     _ADCON0bits	set	4034
   215   000000                     _LATA	set	3977
   216   000000                     _PORTE	set	3972
   217   000000                     _PORTD	set	3971
   218   000000                     _PORTC	set	3970
   219   000000                     _PORTB	set	3969
   220   000000                     _PORTA	set	3968
   221   000000                     _TRISA	set	3986
   222   000000                     _PIE2bits	set	4000
   223   000000                     _CCP2CONbits	set	4026
   224   000000                     _CCP1CONbits	set	4029
   225   000000                     _PIR1bits	set	3998
   226   000000                     _CCPR1L	set	4030
   227   000000                     _CCPR2L	set	4027
   228   000000                     _EECON1bits	set	4006
   229   000000                     _EEDATA	set	4008
   230   000000                     _EEADR	set	4009
   231   000000                     _EEADRH	set	4010
   232   000000                     _T3CONbits	set	4017
   233   000000                     _PIR2bits	set	4001
   234   000000                     _LATE	set	3981
   235   000000                     _LATD	set	3980
   236   000000                     _LATC	set	3979
   237   000000                     _LATB	set	3978
   238   000000                     _BAUDCONbits	set	4024
   239   001011                     STR_1:
   240   001011  25                 	db	37
   241   001012  69                 	db	105	;'i'
   242   001013  00                 	db	0
   243   001014  00                 	db	0	; dummy byte at the end
   244   000000                     
   245                           ; #config settings
   246                           
   247                           	psect	cinit
   248   0013FC                     __pcinit:
   249                           	callstack 0
   250   0013FC                     start_initialization:
   251                           	callstack 0
   252   0013FC                     __initialization:
   253                           	callstack 0
   254                           
   255                           ; Initialize objects allocated to BANK0 (10 bytes)
   256                           ; load TBLPTR registers with __pidataBANK0
   257   0013FC  0E18               	movlw	low __pidataBANK0
   258   0013FE  6EF6               	movwf	tblptrl,c
   259   001400  0E15               	movlw	high __pidataBANK0
   260   001402  6EF7               	movwf	tblptrh,c
   261   001404  0E00               	movlw	low (__pidataBANK0 shr (0+16))
   262   001406  6EF8               	movwf	tblptru,c
   263   001408  EE00  F080         	lfsr	0,__pdataBANK0
   264   00140C  EE10 F00A          	lfsr	1,10
   265   001410                     copy_data0:
   266   001410  0009               	tblrd		*+
   267   001412  CFF5 FFEE          	movff	tablat,postinc0
   268   001416  50E5               	movf	postdec1,w,c
   269   001418  50E1               	movf	fsr1l,w,c
   270   00141A  E1FA               	bnz	copy_data0
   271                           
   272                           ; Initialize objects allocated to COMRAM (31 bytes)
   273                           ; load TBLPTR registers with __pidataCOMRAM
   274   00141C  0E60               	movlw	low __pidataCOMRAM
   275   00141E  6EF6               	movwf	tblptrl,c
   276   001420  0E14               	movlw	high __pidataCOMRAM
   277   001422  6EF7               	movwf	tblptrh,c
   278   001424  0E00               	movlw	low (__pidataCOMRAM shr (0+16))
   279   001426  6EF8               	movwf	tblptru,c
   280   001428  EE00  F05A         	lfsr	0,__pdataCOMRAM
   281   00142C  EE10 F01F          	lfsr	1,31
   282   001430                     copy_data1:
   283   001430  0009               	tblrd		*+
   284   001432  CFF5 FFEE          	movff	tablat,postinc0
   285   001436  50E5               	movf	postdec1,w,c
   286   001438  50E1               	movf	fsr1l,w,c
   287   00143A  E1FA               	bnz	copy_data1
   288                           
   289                           ; Clear objects allocated to BANK0 (6 bytes)
   290   00143C  0100               	movlb	0
   291   00143E  6B8F               	clrf	(__pbssBANK0+5)& (0+255),b
   292   001440  6B8E               	clrf	(__pbssBANK0+4)& (0+255),b
   293   001442  6B8D               	clrf	(__pbssBANK0+3)& (0+255),b
   294   001444  6B8C               	clrf	(__pbssBANK0+2)& (0+255),b
   295   001446  6B8B               	clrf	(__pbssBANK0+1)& (0+255),b
   296   001448  6B8A               	clrf	__pbssBANK0& (0+255),b
   297                           
   298                           ; Clear objects allocated to COMRAM (89 bytes)
   299   00144A  EE00  F001         	lfsr	0,__pbssCOMRAM
   300   00144E  0E59               	movlw	89
   301   001450                     clear_0:
   302   001450  6AEE               	clrf	postinc0,c
   303   001452  06E8               	decf	wreg,f,c
   304   001454  E1FD               	bnz	clear_0
   305   001456                     end_of_initialization:
   306                           	callstack 0
   307   001456                     __end_of__initialization:
   308                           	callstack 0
   309   001456  907A               	bcf	int$flags,0,c	;clear compiler interrupt flag (level 1)
   310   001458  927A               	bcf	int$flags,1,c	;clear compiler interrupt flag (level 2)
   311   00145A  0100               	movlb	0
   312   00145C  EF74  F00A         	goto	_main	;jump to C main() function
   313                           
   314                           	psect	bssCOMRAM
   315   000001                     __pbssCOMRAM:
   316                           	callstack 0
   317   000001                     	ds	4
   318   000005                     _I2C_Report_Receive_Overflow_InterruptHandle:
   319                           	callstack 0
   320   000005                     	ds	2
   321   000007                     _I2C_DefaultInterruptHandle:
   322                           	callstack 0
   323   000007                     	ds	2
   324   000009                     _I2C_Report_Write_Collision_InterruptHandler:
   325                           	callstack 0
   326   000009                     	ds	2
   327   00000B                     _EUSART_OverrunErrorHandler:
   328                           	callstack 0
   329   00000B                     	ds	2
   330   00000D                     _EUSART_FramingErrorHandler:
   331                           	callstack 0
   332   00000D                     	ds	2
   333   00000F                     _EUSART_RxInterruptHandler:
   334                           	callstack 0
   335   00000F                     	ds	2
   336   000011                     _EUSART_TxInterruptHandler:
   337                           	callstack 0
   338   000011                     	ds	2
   339   000013                     _timer3_preload:
   340                           	callstack 0
   341   000013                     	ds	2
   342   000015                     _TMR3_InterruptHandler:
   343                           	callstack 0
   344   000015                     	ds	2
   345   000017                     _TMR2_InterruptHandler:
   346                           	callstack 0
   347   000017                     	ds	2
   348   000019                     _timer1_preload:
   349                           	callstack 0
   350   000019                     	ds	2
   351   00001B                     _TMR1_InterruptHandler:
   352                           	callstack 0
   353   00001B                     	ds	2
   354   00001D                     _timer0_preload:
   355                           	callstack 0
   356   00001D                     	ds	2
   357   00001F                     _TMR0_InterruptHandler:
   358                           	callstack 0
   359   00001F                     	ds	2
   360   000021                     _RB7_InterruptHandler_LOW:
   361                           	callstack 0
   362   000021                     	ds	2
   363   000023                     _RB7_InterruptHandler_HIGH:
   364                           	callstack 0
   365   000023                     	ds	2
   366   000025                     _RB6_InterruptHandler_LOW:
   367                           	callstack 0
   368   000025                     	ds	2
   369   000027                     _RB6_InterruptHandler_HIGH:
   370                           	callstack 0
   371   000027                     	ds	2
   372   000029                     _RB5_InterruptHandler_LOW:
   373                           	callstack 0
   374   000029                     	ds	2
   375   00002B                     _RB5_InterruptHandler_HIGH:
   376                           	callstack 0
   377   00002B                     	ds	2
   378   00002D                     _RB4_InterruptHandler_LOW:
   379                           	callstack 0
   380   00002D                     	ds	2
   381   00002F                     _RB4_InterruptHandler_HIGH:
   382                           	callstack 0
   383   00002F                     	ds	2
   384   000031                     _INT2_InterruptHandler:
   385                           	callstack 0
   386   000031                     	ds	2
   387   000033                     _INT1_InterruptHandler:
   388                           	callstack 0
   389   000033                     	ds	2
   390   000035                     _INT0_InterruptHandler:
   391                           	callstack 0
   392   000035                     	ds	2
   393   000037                     _CCP2_InterruptHandler:
   394                           	callstack 0
   395   000037                     	ds	2
   396   000039                     _CCP1_InterruptHandler:
   397                           	callstack 0
   398   000039                     	ds	2
   399   00003B                     _ADC_InterruptHandler:
   400                           	callstack 0
   401   00003B                     	ds	2
   402   00003D                     _timer2_preload:
   403                           	callstack 0
   404   00003D                     	ds	1
   405   00003E                     relay_turn_off@F3062:
   406                           	callstack 0
   407   00003E                     	ds	1
   408   00003F                     relay_turn_on@F3057:
   409                           	callstack 0
   410   00003F                     	ds	1
   411   000040                     relay_intialize@F3052:
   412                           	callstack 0
   413   000040                     	ds	1
   414   000041                     led_toggle@F3069:
   415                           	callstack 0
   416   000041                     	ds	1
   417   000042                     led_turn_off@F3064:
   418                           	callstack 0
   419   000042                     	ds	1
   420   000043                     led_turn_on@F3059:
   421                           	callstack 0
   422   000043                     	ds	1
   423   000044                     led_intialize@F3054:
   424                           	callstack 0
   425   000044                     	ds	1
   426   000045                     keypad_initialize@F3064:
   427                           	callstack 0
   428   000045                     	ds	1
   429   000046                     keypad_initialize@F3062:
   430                           	callstack 0
   431   000046                     	ds	1
   432   000047                     dc_motor_stop@F3080:
   433                           	callstack 0
   434   000047                     	ds	1
   435   000048                     dc_motor_stop@F3078:
   436                           	callstack 0
   437   000048                     	ds	1
   438   000049                     dc_motor_move_left@F3073:
   439                           	callstack 0
   440   000049                     	ds	1
   441   00004A                     dc_motor_move_left@F3071:
   442                           	callstack 0
   443   00004A                     	ds	1
   444   00004B                     dc_motor_move_right@F3066:
   445                           	callstack 0
   446   00004B                     	ds	1
   447   00004C                     dc_motor_move_right@F3064:
   448                           	callstack 0
   449   00004C                     	ds	1
   450   00004D                     dc_motor_intialize@F3059:
   451                           	callstack 0
   452   00004D                     	ds	1
   453   00004E                     dc_motor_intialize@F3057:
   454                           	callstack 0
   455   00004E                     	ds	1
   456   00004F                     lcd_8bit_send_enable_signal@F3255:
   457                           	callstack 0
   458   00004F                     	ds	1
   459   000050                     lcd_4bit_send_enable_signal@F3250:
   460                           	callstack 0
   461   000050                     	ds	1
   462   000051                     lcd_8bit_send_char_data@F3200:
   463                           	callstack 0
   464   000051                     	ds	1
   465   000052                     lcd_8bit_send_command@F3192:
   466                           	callstack 0
   467   000052                     	ds	1
   468   000053                     lcd_8bit_intialize@F3184:
   469                           	callstack 0
   470   000053                     	ds	1
   471   000054                     lcd_4bit_send_char_data@F3154:
   472                           	callstack 0
   473   000054                     	ds	1
   474   000055                     lcd_4bit_send_command@F3148:
   475                           	callstack 0
   476   000055                     	ds	1
   477   000056                     lcd_4bit_intialize@F3142:
   478                           	callstack 0
   479   000056                     	ds	1
   480   000057                     button_read_state@F3067:
   481                           	callstack 0
   482   000057                     	ds	1
   483   000058                     button_initialize@F3060:
   484                           	callstack 0
   485   000058                     	ds	1
   486   000059                     seven_segment_intialize@F3059:
   487                           	callstack 0
   488   000059                     	ds	1
   489                           
   490                           	psect	dataCOMRAM
   491   00005A                     __pdataCOMRAM:
   492                           	callstack 0
   493   00005A                     _LAT_REGESTERS:
   494                           	callstack 0
   495   00005A                     	ds	10
   496   000064                     _TRIS_REGESTERS:
   497                           	callstack 0
   498   000064                     	ds	10
   499   00006E                     MSSP_SPI_Slave_Mode_GPIO_PIN_Configurations@F3117:
   500                           	callstack 0
   501   00006E                     	ds	1
   502   00006F                     MSSP_SPI_Slave_Mode_GPIO_PIN_Configurations@F3115:
   503                           	callstack 0
   504   00006F                     	ds	1
   505   000070                     MSSP_SPI_Slave_Mode_GPIO_PIN_Configurations@F3113:
   506                           	callstack 0
   507   000070                     	ds	1
   508   000071                     MSSP_SPI_Slave_Mode_GPIO_PIN_Configurations@F3111:
   509                           	callstack 0
   510   000071                     	ds	1
   511   000072                     MSSP_SPI_Msster_Mode_GPIO_PIN_Configurations@F3106:
   512                           	callstack 0
   513   000072                     	ds	1
   514   000073                     MSSP_SPI_Msster_Mode_GPIO_PIN_Configurations@F3104:
   515                           	callstack 0
   516   000073                     	ds	1
   517   000074                     MSSP_SPI_Msster_Mode_GPIO_PIN_Configurations@F3102:
   518                           	callstack 0
   519   000074                     	ds	1
   520   000075                     _RB7_Flag:
   521                           	callstack 0
   522   000075                     	ds	1
   523   000076                     _RB6_Flag:
   524                           	callstack 0
   525   000076                     	ds	1
   526   000077                     _RB5_Flag:
   527                           	callstack 0
   528   000077                     	ds	1
   529   000078                     _RB4_Flag:
   530                           	callstack 0
   531   000078                     	ds	1
   532                           
   533                           	psect	bssBANK0
   534   00008A                     __pbssBANK0:
   535                           	callstack 0
   536   00008A                     	ds	6
   537                           
   538                           	psect	dataBANK0
   539   000080                     __pdataBANK0:
   540                           	callstack 0
   541   000080                     _PORT_REGESTERS:
   542                           	callstack 0
   543   000080                     	ds	10
   544                           
   545                           	psect	cstackCOMRAM
   546   000079                     __pcstackCOMRAM:
   547                           	callstack 0
   548   000079                     RB4_ISR@RB4_Source:
   549                           	callstack 0
   550   000079                     RB5_ISR@RB5_Source:
   551                           	callstack 0
   552   000079                     RB6_ISR@RB6_Source:
   553                           	callstack 0
   554   000079                     RB7_ISR@RB7_Source:
   555                           	callstack 0
   556                           
   557                           ; 1 bytes @ 0x0
   558   000079                     	ds	1
   559   00007A                     
   560                           ; 1 bytes @ 0x1
   561 ;;
   562 ;;Main: autosize = 0, tempsize = 0, incstack = 0, save=0
   563 ;;
   564 ;; *************** function _main *****************
   565 ;; Defined at:
   566 ;;		line 11 in file "application.c"
   567 ;; Parameters:    Size  Location     Type
   568 ;;		None
   569 ;; Auto vars:     Size  Location     Type
   570 ;;  ret             1    0        unsigned char 
   571 ;; Return value:  Size  Location     Type
   572 ;;                  2  1648[None  ] int 
   573 ;; Registers used:
   574 ;;		wreg, status,2, cstack
   575 ;; Tracked objects:
   576 ;;		On entry : 0/0
   577 ;;		On exit  : 0/0
   578 ;;		Unchanged: 0/0
   579 ;; Data sizes:     COMRAM   BANK0   BANK1   BANK2   BANK3   BANK4   BANK5   BANK6   BANK7   BANK8   BANK9  BANK10  BANK1
      +1  BANK12  BANK13  BANK14  BANK15
   580 ;;      Params:         0       0       0       0       0       0       0       0       0       0       0       0       
      +0       0       0       0       0
   581 ;;      Locals:         0       0       0       0       0       0       0       0       0       0       0       0       
      +0       0       0       0       0
   582 ;;      Temps:          0       0       0       0       0       0       0       0       0       0       0       0       
      +0       0       0       0       0
   583 ;;      Totals:         0       0       0       0       0       0       0       0       0       0       0       0       
      +0       0       0       0       0
   584 ;;Total ram usage:        0 bytes
   585 ;; Hardware stack levels required when called: 3
   586 ;; This function calls:
   587 ;;		_application_intialize
   588 ;; This function is called by:
   589 ;;		Startup code after reset
   590 ;; This function uses a non-reentrant model
   591 ;;
   592                           
   593                           	psect	text0
   594   0014E8                     __ptext0:
   595                           	callstack 0
   596   0014E8                     _main:
   597                           	callstack 28
   598   0014E8                     
   599                           ;application.c: 14:     application_intialize();
   600   0014E8  ECA7  F00A         	call	_application_intialize	;wreg free
   601   0014EC                     l1649:
   602   0014EC  EF76  F00A         	goto	l1649
   603   0014F0  EF07  F000         	goto	start
   604   0014F4                     __end_of_main:
   605                           	callstack 0
   606                           
   607 ;; *************** function _application_intialize *****************
   608 ;; Defined at:
   609 ;;		line 24 in file "application.c"
   610 ;; Parameters:    Size  Location     Type
   611 ;;		None
   612 ;; Auto vars:     Size  Location     Type
   613 ;;  ret             1    0        unsigned char 
   614 ;; Return value:  Size  Location     Type
   615 ;;                  1    wreg      void 
   616 ;; Registers used:
   617 ;;		wreg, status,2
   618 ;; Tracked objects:
   619 ;;		On entry : 0/0
   620 ;;		On exit  : 0/0
   621 ;;		Unchanged: 0/0
   622 ;; Data sizes:     COMRAM   BANK0   BANK1   BANK2   BANK3   BANK4   BANK5   BANK6   BANK7   BANK8   BANK9  BANK10  BANK1
      +1  BANK12  BANK13  BANK14  BANK15
   623 ;;      Params:         0       0       0       0       0       0       0       0       0       0       0       0       
      +0       0       0       0       0
   624 ;;      Locals:         0       0       0       0       0       0       0       0       0       0       0       0       
      +0       0       0       0       0
   625 ;;      Temps:          0       0       0       0       0       0       0       0       0       0       0       0       
      +0       0       0       0       0
   626 ;;      Totals:         0       0       0       0       0       0       0       0       0       0       0       0       
      +0       0       0       0       0
   627 ;;Total ram usage:        0 bytes
   628 ;; Hardware stack levels used: 1
   629 ;; Hardware stack levels required when called: 2
   630 ;; This function calls:
   631 ;;		Nothing
   632 ;; This function is called by:
   633 ;;		_main
   634 ;; This function uses a non-reentrant model
   635 ;;
   636                           
   637                           	psect	text1
   638   00154E                     __ptext1:
   639                           	callstack 0
   640   00154E                     _application_intialize:
   641                           	callstack 28
   642   00154E  0012               	return		;funcret
   643   001550                     __end_of_application_intialize:
   644                           	callstack 0
   645                           
   646 ;; *************** function _InterruptManager *****************
   647 ;; Defined at:
   648 ;;		line 37 in file "MCAL_Layer/Interrupt/mcal_interrupt_manager.c"
   649 ;; Parameters:    Size  Location     Type
   650 ;;		None
   651 ;; Auto vars:     Size  Location     Type
   652 ;;		None
   653 ;; Return value:  Size  Location     Type
   654 ;;                  1    wreg      void 
   655 ;; Registers used:
   656 ;;		wreg, status,2, status,0, cstack
   657 ;; Tracked objects:
   658 ;;		On entry : 0/0
   659 ;;		On exit  : 0/0
   660 ;;		Unchanged: 0/0
   661 ;; Data sizes:     COMRAM   BANK0   BANK1   BANK2   BANK3   BANK4   BANK5   BANK6   BANK7   BANK8   BANK9  BANK10  BANK1
      +1  BANK12  BANK13  BANK14  BANK15
   662 ;;      Params:         0       0       0       0       0       0       0       0       0       0       0       0       
      +0       0       0       0       0
   663 ;;      Locals:         0       0       0       0       0       0       0       0       0       0       0       0       
      +0       0       0       0       0
   664 ;;      Temps:          0       0       0       0       0       0       0       0       0       0       0       0       
      +0       0       0       0       0
   665 ;;      Totals:         0       0       0       0       0       0       0       0       0       0       0       0       
      +0       0       0       0       0
   666 ;;Total ram usage:        0 bytes
   667 ;; Hardware stack levels used: 1
   668 ;; Hardware stack levels required when called: 1
   669 ;; This function calls:
   670 ;;		_ADC_ISR
   671 ;;		_CCP1_ISR
   672 ;;		_CCP2_ISR
   673 ;;		_EUSART_RX_ISR
   674 ;;		_EUSART_TX_ISR
   675 ;;		_INT0_ISR
   676 ;;		_INT1_ISR
   677 ;;		_INT2_ISR
   678 ;;		_MSSP_I2C_BC_ISR
   679 ;;		_MSSP_I2C_ISR
   680 ;;		_RB4_ISR
   681 ;;		_RB5_ISR
   682 ;;		_RB6_ISR
   683 ;;		_RB7_ISR
   684 ;;		_TMR0_ISR
   685 ;;		_TMR1_ISR
   686 ;;		_TMR2_ISR
   687 ;;		_TMR3_ISR
   688 ;; This function is called by:
   689 ;;		Interrupt level 2
   690 ;; This function uses a non-reentrant model
   691 ;;
   692                           
   693                           	psect	intcode
   694   000008                     __pintcode:
   695                           	callstack 0
   696   000008                     _InterruptManager:
   697                           	callstack 28
   698                           
   699                           ;incstack = 0
   700   000008  827A               	bsf	int$flags,1,c	;set compiler interrupt flag (level 2)
   701   00000A  ED0B  F008         	call	int_func,f	;refresh shadow registers
   702                           
   703                           	psect	intcode_body
   704   001016                     __pintcode_body:
   705                           	callstack 28
   706   001016                     int_func:
   707                           	callstack 28
   708   001016  0006               	pop		; remove dummy address from shadow register refresh
   709   001018                     
   710                           ;MCAL_Layer/Interrupt/mcal_interrupt_manager.c: 40:     if((1 == INTCONbits.INT0IE) && (
      +                          1 == INTCONbits.INT0IF))
   711   001018  A8F2               	btfss	242,4,c	;volatile
   712   00101A  EF11  F008         	goto	i2u217_41
   713   00101E  EF13  F008         	goto	i2u217_40
   714   001022                     i2u217_41:
   715   001022  EF1C  F008         	goto	i2l1152
   716   001026                     i2u217_40:
   717   001026  A2F2               	btfss	242,1,c	;volatile
   718   001028  EF18  F008         	goto	i2u218_41
   719   00102C  EF1A  F008         	goto	i2u218_40
   720   001030                     i2u218_41:
   721   001030  EF1C  F008         	goto	i2l1152
   722   001034                     i2u218_40:
   723   001034                     
   724                           ;MCAL_Layer/Interrupt/mcal_interrupt_manager.c: 41:     {;MCAL_Layer/Interrupt/mcal_inte
      +                          rrupt_manager.c: 42:         INT0_ISR();
   725   001034  EC9D  F00A         	call	_INT0_ISR	;wreg free
   726   001038                     i2l1152:
   727                           
   728                           ;MCAL_Layer/Interrupt/mcal_interrupt_manager.c: 45:     if((1 == INTCON3bits.INT1E) && (
      +                          1 == INTCON3bits.INT1F))
   729   001038  A6F0               	btfss	240,3,c	;volatile
   730   00103A  EF21  F008         	goto	i2u219_41
   731   00103E  EF23  F008         	goto	i2u219_40
   732   001042                     i2u219_41:
   733   001042  EF2C  F008         	goto	i2l1154
   734   001046                     i2u219_40:
   735   001046  A0F0               	btfss	240,0,c	;volatile
   736   001048  EF28  F008         	goto	i2u220_41
   737   00104C  EF2A  F008         	goto	i2u220_40
   738   001050                     i2u220_41:
   739   001050  EF2C  F008         	goto	i2l1154
   740   001054                     i2u220_40:
   741   001054                     
   742                           ;MCAL_Layer/Interrupt/mcal_interrupt_manager.c: 46:     {;MCAL_Layer/Interrupt/mcal_inte
      +                          rrupt_manager.c: 47:         INT1_ISR();
   743   001054  EC9B  F00A         	call	_INT1_ISR	;wreg free
   744   001058                     i2l1154:
   745                           
   746                           ;MCAL_Layer/Interrupt/mcal_interrupt_manager.c: 50:     if((1 == INTCON3bits.INT2IE) && 
      +                          (1 == INTCON3bits.INT2IF))
   747   001058  A8F0               	btfss	240,4,c	;volatile
   748   00105A  EF31  F008         	goto	i2u221_41
   749   00105E  EF33  F008         	goto	i2u221_40
   750   001062                     i2u221_41:
   751   001062  EF3C  F008         	goto	i2l1156
   752   001066                     i2u221_40:
   753   001066  A2F0               	btfss	240,1,c	;volatile
   754   001068  EF38  F008         	goto	i2u222_41
   755   00106C  EF3A  F008         	goto	i2u222_40
   756   001070                     i2u222_41:
   757   001070  EF3C  F008         	goto	i2l1156
   758   001074                     i2u222_40:
   759   001074                     
   760                           ;MCAL_Layer/Interrupt/mcal_interrupt_manager.c: 51:     {;MCAL_Layer/Interrupt/mcal_inte
      +                          rrupt_manager.c: 52:         INT2_ISR();
   761   001074  EC99  F00A         	call	_INT2_ISR	;wreg free
   762   001078                     i2l1156:
   763                           
   764                           ;MCAL_Layer/Interrupt/mcal_interrupt_manager.c: 58:     if((1 == INTCONbits.RBIE) && (1 
      +                          == INTCONbits.RBIF) &&
   765   001078  A6F2               	btfss	242,3,c	;volatile
   766   00107A  EF41  F008         	goto	i2u223_41
   767   00107E  EF43  F008         	goto	i2u223_40
   768   001082                     i2u223_41:
   769   001082  EF5E  F008         	goto	i2l1158
   770   001086                     i2u223_40:
   771   001086  A0F2               	btfss	242,0,c	;volatile
   772   001088  EF48  F008         	goto	i2u224_41
   773   00108C  EF4A  F008         	goto	i2u224_40
   774   001090                     i2u224_41:
   775   001090  EF5E  F008         	goto	i2l1158
   776   001094                     i2u224_40:
   777   001094  A881               	btfss	129,4,c	;volatile
   778   001096  EF4F  F008         	goto	i2u225_41
   779   00109A  EF51  F008         	goto	i2u225_40
   780   00109E                     i2u225_41:
   781   00109E  EF5E  F008         	goto	i2l1158
   782   0010A2                     i2u225_40:
   783   0010A2  0478               	decf	_RB4_Flag^0,w,c	;volatile
   784   0010A4  A4D8               	btfss	status,2,c
   785   0010A6  EF57  F008         	goto	i2u226_41
   786   0010AA  EF59  F008         	goto	i2u226_40
   787   0010AE                     i2u226_41:
   788   0010AE  EF5E  F008         	goto	i2l1158
   789   0010B2                     i2u226_40:
   790   0010B2                     
   791                           ;MCAL_Layer/Interrupt/mcal_interrupt_manager.c: 60:     {;MCAL_Layer/Interrupt/mcal_inte
      +                          rrupt_manager.c: 61:         RB4_Flag = 0;
   792   0010B2  0E00               	movlw	0
   793   0010B4  6E78               	movwf	_RB4_Flag^0,c	;volatile
   794   0010B6                     
   795                           ;MCAL_Layer/Interrupt/mcal_interrupt_manager.c: 62:         RB4_ISR(0);
   796   0010B6  0E00               	movlw	0
   797   0010B8  EC67  F00A         	call	_RB4_ISR
   798   0010BC                     i2l1158:
   799                           
   800                           ;MCAL_Layer/Interrupt/mcal_interrupt_manager.c: 65:     if((1 == INTCONbits.RBIE) && (1 
      +                          == INTCONbits.RBIF) &&
   801   0010BC  A6F2               	btfss	242,3,c	;volatile
   802   0010BE  EF63  F008         	goto	i2u227_41
   803   0010C2  EF65  F008         	goto	i2u227_40
   804   0010C6                     i2u227_41:
   805   0010C6  EF80  F008         	goto	i2l1160
   806   0010CA                     i2u227_40:
   807   0010CA  A0F2               	btfss	242,0,c	;volatile
   808   0010CC  EF6A  F008         	goto	i2u228_41
   809   0010D0  EF6C  F008         	goto	i2u228_40
   810   0010D4                     i2u228_41:
   811   0010D4  EF80  F008         	goto	i2l1160
   812   0010D8                     i2u228_40:
   813   0010D8  B881               	btfsc	129,4,c	;volatile
   814   0010DA  EF71  F008         	goto	i2u229_41
   815   0010DE  EF73  F008         	goto	i2u229_40
   816   0010E2                     i2u229_41:
   817   0010E2  EF80  F008         	goto	i2l1160
   818   0010E6                     i2u229_40:
   819   0010E6  5078               	movf	_RB4_Flag^0,w,c	;volatile
   820   0010E8  A4D8               	btfss	status,2,c
   821   0010EA  EF79  F008         	goto	i2u230_41
   822   0010EE  EF7B  F008         	goto	i2u230_40
   823   0010F2                     i2u230_41:
   824   0010F2  EF80  F008         	goto	i2l1160
   825   0010F6                     i2u230_40:
   826   0010F6                     
   827                           ;MCAL_Layer/Interrupt/mcal_interrupt_manager.c: 67:     {;MCAL_Layer/Interrupt/mcal_inte
      +                          rrupt_manager.c: 68:         RB4_Flag = 1;
   828   0010F6  0E01               	movlw	1
   829   0010F8  6E78               	movwf	_RB4_Flag^0,c	;volatile
   830   0010FA                     
   831                           ;MCAL_Layer/Interrupt/mcal_interrupt_manager.c: 69:         RB4_ISR(1);
   832   0010FA  0E01               	movlw	1
   833   0010FC  EC67  F00A         	call	_RB4_ISR
   834   001100                     i2l1160:
   835                           
   836                           ;MCAL_Layer/Interrupt/mcal_interrupt_manager.c: 72:     if((1 == INTCONbits.RBIE) && (1 
      +                          == INTCONbits.RBIF) &&
   837   001100  A6F2               	btfss	242,3,c	;volatile
   838   001102  EF85  F008         	goto	i2u231_41
   839   001106  EF87  F008         	goto	i2u231_40
   840   00110A                     i2u231_41:
   841   00110A  EFA2  F008         	goto	i2l1162
   842   00110E                     i2u231_40:
   843   00110E  A0F2               	btfss	242,0,c	;volatile
   844   001110  EF8C  F008         	goto	i2u232_41
   845   001114  EF8E  F008         	goto	i2u232_40
   846   001118                     i2u232_41:
   847   001118  EFA2  F008         	goto	i2l1162
   848   00111C                     i2u232_40:
   849   00111C  AA81               	btfss	129,5,c	;volatile
   850   00111E  EF93  F008         	goto	i2u233_41
   851   001122  EF95  F008         	goto	i2u233_40
   852   001126                     i2u233_41:
   853   001126  EFA2  F008         	goto	i2l1162
   854   00112A                     i2u233_40:
   855   00112A  0477               	decf	_RB5_Flag^0,w,c	;volatile
   856   00112C  A4D8               	btfss	status,2,c
   857   00112E  EF9B  F008         	goto	i2u234_41
   858   001132  EF9D  F008         	goto	i2u234_40
   859   001136                     i2u234_41:
   860   001136  EFA2  F008         	goto	i2l1162
   861   00113A                     i2u234_40:
   862   00113A                     
   863                           ;MCAL_Layer/Interrupt/mcal_interrupt_manager.c: 74:     {;MCAL_Layer/Interrupt/mcal_inte
      +                          rrupt_manager.c: 75:         RB5_Flag = 0;
   864   00113A  0E00               	movlw	0
   865   00113C  6E77               	movwf	_RB5_Flag^0,c	;volatile
   866   00113E                     
   867                           ;MCAL_Layer/Interrupt/mcal_interrupt_manager.c: 76:         RB5_ISR(0);
   868   00113E  0E00               	movlw	0
   869   001140  EC5A  F00A         	call	_RB5_ISR
   870   001144                     i2l1162:
   871                           
   872                           ;MCAL_Layer/Interrupt/mcal_interrupt_manager.c: 79:     if((1 == INTCONbits.RBIE) && (1 
      +                          == INTCONbits.RBIF) &&
   873   001144  A6F2               	btfss	242,3,c	;volatile
   874   001146  EFA7  F008         	goto	i2u235_41
   875   00114A  EFA9  F008         	goto	i2u235_40
   876   00114E                     i2u235_41:
   877   00114E  EFC4  F008         	goto	i2l1164
   878   001152                     i2u235_40:
   879   001152  A0F2               	btfss	242,0,c	;volatile
   880   001154  EFAE  F008         	goto	i2u236_41
   881   001158  EFB0  F008         	goto	i2u236_40
   882   00115C                     i2u236_41:
   883   00115C  EFC4  F008         	goto	i2l1164
   884   001160                     i2u236_40:
   885   001160  BA81               	btfsc	129,5,c	;volatile
   886   001162  EFB5  F008         	goto	i2u237_41
   887   001166  EFB7  F008         	goto	i2u237_40
   888   00116A                     i2u237_41:
   889   00116A  EFC4  F008         	goto	i2l1164
   890   00116E                     i2u237_40:
   891   00116E  5077               	movf	_RB5_Flag^0,w,c	;volatile
   892   001170  A4D8               	btfss	status,2,c
   893   001172  EFBD  F008         	goto	i2u238_41
   894   001176  EFBF  F008         	goto	i2u238_40
   895   00117A                     i2u238_41:
   896   00117A  EFC4  F008         	goto	i2l1164
   897   00117E                     i2u238_40:
   898   00117E                     
   899                           ;MCAL_Layer/Interrupt/mcal_interrupt_manager.c: 81:     {;MCAL_Layer/Interrupt/mcal_inte
      +                          rrupt_manager.c: 82:         RB5_Flag = 1;
   900   00117E  0E01               	movlw	1
   901   001180  6E77               	movwf	_RB5_Flag^0,c	;volatile
   902   001182                     
   903                           ;MCAL_Layer/Interrupt/mcal_interrupt_manager.c: 83:         RB5_ISR(1);
   904   001182  0E01               	movlw	1
   905   001184  EC5A  F00A         	call	_RB5_ISR
   906   001188                     i2l1164:
   907                           
   908                           ;MCAL_Layer/Interrupt/mcal_interrupt_manager.c: 86:     if((1 == INTCONbits.RBIE) && (1 
      +                          == INTCONbits.RBIF) &&
   909   001188  A6F2               	btfss	242,3,c	;volatile
   910   00118A  EFC9  F008         	goto	i2u239_41
   911   00118E  EFCB  F008         	goto	i2u239_40
   912   001192                     i2u239_41:
   913   001192  EFE6  F008         	goto	i2l1166
   914   001196                     i2u239_40:
   915   001196  A0F2               	btfss	242,0,c	;volatile
   916   001198  EFD0  F008         	goto	i2u240_41
   917   00119C  EFD2  F008         	goto	i2u240_40
   918   0011A0                     i2u240_41:
   919   0011A0  EFE6  F008         	goto	i2l1166
   920   0011A4                     i2u240_40:
   921   0011A4  AC81               	btfss	129,6,c	;volatile
   922   0011A6  EFD7  F008         	goto	i2u241_41
   923   0011AA  EFD9  F008         	goto	i2u241_40
   924   0011AE                     i2u241_41:
   925   0011AE  EFE6  F008         	goto	i2l1166
   926   0011B2                     i2u241_40:
   927   0011B2  0476               	decf	_RB6_Flag^0,w,c	;volatile
   928   0011B4  A4D8               	btfss	status,2,c
   929   0011B6  EFDF  F008         	goto	i2u242_41
   930   0011BA  EFE1  F008         	goto	i2u242_40
   931   0011BE                     i2u242_41:
   932   0011BE  EFE6  F008         	goto	i2l1166
   933   0011C2                     i2u242_40:
   934   0011C2                     
   935                           ;MCAL_Layer/Interrupt/mcal_interrupt_manager.c: 88:     {;MCAL_Layer/Interrupt/mcal_inte
      +                          rrupt_manager.c: 89:         RB6_Flag = 0;
   936   0011C2  0E00               	movlw	0
   937   0011C4  6E76               	movwf	_RB6_Flag^0,c	;volatile
   938   0011C6                     
   939                           ;MCAL_Layer/Interrupt/mcal_interrupt_manager.c: 90:         RB6_ISR(0);
   940   0011C6  0E00               	movlw	0
   941   0011C8  EC4D  F00A         	call	_RB6_ISR
   942   0011CC                     i2l1166:
   943                           
   944                           ;MCAL_Layer/Interrupt/mcal_interrupt_manager.c: 93:     if((1 == INTCONbits.RBIE) && (1 
      +                          == INTCONbits.RBIF) &&
   945   0011CC  A6F2               	btfss	242,3,c	;volatile
   946   0011CE  EFEB  F008         	goto	i2u243_41
   947   0011D2  EFED  F008         	goto	i2u243_40
   948   0011D6                     i2u243_41:
   949   0011D6  EF08  F009         	goto	i2l1168
   950   0011DA                     i2u243_40:
   951   0011DA  A0F2               	btfss	242,0,c	;volatile
   952   0011DC  EFF2  F008         	goto	i2u244_41
   953   0011E0  EFF4  F008         	goto	i2u244_40
   954   0011E4                     i2u244_41:
   955   0011E4  EF08  F009         	goto	i2l1168
   956   0011E8                     i2u244_40:
   957   0011E8  BC81               	btfsc	129,6,c	;volatile
   958   0011EA  EFF9  F008         	goto	i2u245_41
   959   0011EE  EFFB  F008         	goto	i2u245_40
   960   0011F2                     i2u245_41:
   961   0011F2  EF08  F009         	goto	i2l1168
   962   0011F6                     i2u245_40:
   963   0011F6  5076               	movf	_RB6_Flag^0,w,c	;volatile
   964   0011F8  A4D8               	btfss	status,2,c
   965   0011FA  EF01  F009         	goto	i2u246_41
   966   0011FE  EF03  F009         	goto	i2u246_40
   967   001202                     i2u246_41:
   968   001202  EF08  F009         	goto	i2l1168
   969   001206                     i2u246_40:
   970   001206                     
   971                           ;MCAL_Layer/Interrupt/mcal_interrupt_manager.c: 95:     {;MCAL_Layer/Interrupt/mcal_inte
      +                          rrupt_manager.c: 96:         RB6_Flag = 1;
   972   001206  0E01               	movlw	1
   973   001208  6E76               	movwf	_RB6_Flag^0,c	;volatile
   974   00120A                     
   975                           ;MCAL_Layer/Interrupt/mcal_interrupt_manager.c: 97:         RB6_ISR(1);
   976   00120A  0E01               	movlw	1
   977   00120C  EC4D  F00A         	call	_RB6_ISR
   978   001210                     i2l1168:
   979                           
   980                           ;MCAL_Layer/Interrupt/mcal_interrupt_manager.c: 100:     if((1 == INTCONbits.RBIE) && (1
      +                           == INTCONbits.RBIF) &&
   981   001210  A6F2               	btfss	242,3,c	;volatile
   982   001212  EF0D  F009         	goto	i2u247_41
   983   001216  EF0F  F009         	goto	i2u247_40
   984   00121A                     i2u247_41:
   985   00121A  EF2A  F009         	goto	i2l1170
   986   00121E                     i2u247_40:
   987   00121E  A0F2               	btfss	242,0,c	;volatile
   988   001220  EF14  F009         	goto	i2u248_41
   989   001224  EF16  F009         	goto	i2u248_40
   990   001228                     i2u248_41:
   991   001228  EF2A  F009         	goto	i2l1170
   992   00122C                     i2u248_40:
   993   00122C  AE81               	btfss	129,7,c	;volatile
   994   00122E  EF1B  F009         	goto	i2u249_41
   995   001232  EF1D  F009         	goto	i2u249_40
   996   001236                     i2u249_41:
   997   001236  EF2A  F009         	goto	i2l1170
   998   00123A                     i2u249_40:
   999   00123A  0475               	decf	_RB7_Flag^0,w,c	;volatile
  1000   00123C  A4D8               	btfss	status,2,c
  1001   00123E  EF23  F009         	goto	i2u250_41
  1002   001242  EF25  F009         	goto	i2u250_40
  1003   001246                     i2u250_41:
  1004   001246  EF2A  F009         	goto	i2l1170
  1005   00124A                     i2u250_40:
  1006   00124A                     
  1007                           ;MCAL_Layer/Interrupt/mcal_interrupt_manager.c: 102:     {;MCAL_Layer/Interrupt/mcal_int
      +                          errupt_manager.c: 103:         RB7_Flag = 0;
  1008   00124A  0E00               	movlw	0
  1009   00124C  6E75               	movwf	_RB7_Flag^0,c	;volatile
  1010   00124E                     
  1011                           ;MCAL_Layer/Interrupt/mcal_interrupt_manager.c: 104:         RB7_ISR(0);
  1012   00124E  0E00               	movlw	0
  1013   001250  EC40  F00A         	call	_RB7_ISR
  1014   001254                     i2l1170:
  1015                           
  1016                           ;MCAL_Layer/Interrupt/mcal_interrupt_manager.c: 107:     if((1 == INTCONbits.RBIE) && (1
      +                           == INTCONbits.RBIF) &&
  1017   001254  A6F2               	btfss	242,3,c	;volatile
  1018   001256  EF2F  F009         	goto	i2u251_41
  1019   00125A  EF31  F009         	goto	i2u251_40
  1020   00125E                     i2u251_41:
  1021   00125E  EF4C  F009         	goto	i2l1172
  1022   001262                     i2u251_40:
  1023   001262  A0F2               	btfss	242,0,c	;volatile
  1024   001264  EF36  F009         	goto	i2u252_41
  1025   001268  EF38  F009         	goto	i2u252_40
  1026   00126C                     i2u252_41:
  1027   00126C  EF4C  F009         	goto	i2l1172
  1028   001270                     i2u252_40:
  1029   001270  BE81               	btfsc	129,7,c	;volatile
  1030   001272  EF3D  F009         	goto	i2u253_41
  1031   001276  EF3F  F009         	goto	i2u253_40
  1032   00127A                     i2u253_41:
  1033   00127A  EF4C  F009         	goto	i2l1172
  1034   00127E                     i2u253_40:
  1035   00127E  5075               	movf	_RB7_Flag^0,w,c	;volatile
  1036   001280  A4D8               	btfss	status,2,c
  1037   001282  EF45  F009         	goto	i2u254_41
  1038   001286  EF47  F009         	goto	i2u254_40
  1039   00128A                     i2u254_41:
  1040   00128A  EF4C  F009         	goto	i2l1172
  1041   00128E                     i2u254_40:
  1042   00128E                     
  1043                           ;MCAL_Layer/Interrupt/mcal_interrupt_manager.c: 109:     {;MCAL_Layer/Interrupt/mcal_int
      +                          errupt_manager.c: 110:         RB7_Flag = 1;
  1044   00128E  0E01               	movlw	1
  1045   001290  6E75               	movwf	_RB7_Flag^0,c	;volatile
  1046   001292                     
  1047                           ;MCAL_Layer/Interrupt/mcal_interrupt_manager.c: 111:         RB7_ISR(1);
  1048   001292  0E01               	movlw	1
  1049   001294  EC40  F00A         	call	_RB7_ISR
  1050   001298                     i2l1172:
  1051                           
  1052                           ;MCAL_Layer/Interrupt/mcal_interrupt_manager.c: 116:     if((1 == PIE1bits.ADIE) && (1 =
      +                          = PIR1bits.ADIF))
  1053   001298  AC9D               	btfss	157,6,c	;volatile
  1054   00129A  EF51  F009         	goto	i2u255_41
  1055   00129E  EF53  F009         	goto	i2u255_40
  1056   0012A2                     i2u255_41:
  1057   0012A2  EF5C  F009         	goto	i2l1174
  1058   0012A6                     i2u255_40:
  1059   0012A6  AC9E               	btfss	158,6,c	;volatile
  1060   0012A8  EF58  F009         	goto	i2u256_41
  1061   0012AC  EF5A  F009         	goto	i2u256_40
  1062   0012B0                     i2u256_41:
  1063   0012B0  EF5C  F009         	goto	i2l1174
  1064   0012B4                     i2u256_40:
  1065   0012B4                     
  1066                           ;MCAL_Layer/Interrupt/mcal_interrupt_manager.c: 117:     {;MCAL_Layer/Interrupt/mcal_int
      +                          errupt_manager.c: 118:         ADC_ISR();
  1067   0012B4  ECA5  F00A         	call	_ADC_ISR	;wreg free
  1068   0012B8                     i2l1174:
  1069                           
  1070                           ;MCAL_Layer/Interrupt/mcal_interrupt_manager.c: 124:     if((1 == INTCONbits.TMR0IE) && 
      +                          (1 == INTCONbits.TMR0IF))
  1071   0012B8  AAF2               	btfss	242,5,c	;volatile
  1072   0012BA  EF61  F009         	goto	i2u257_41
  1073   0012BE  EF63  F009         	goto	i2u257_40
  1074   0012C2                     i2u257_41:
  1075   0012C2  EF6C  F009         	goto	i2l1176
  1076   0012C6                     i2u257_40:
  1077   0012C6  A4F2               	btfss	242,2,c	;volatile
  1078   0012C8  EF68  F009         	goto	i2u258_41
  1079   0012CC  EF6A  F009         	goto	i2u258_40
  1080   0012D0                     i2u258_41:
  1081   0012D0  EF6C  F009         	goto	i2l1176
  1082   0012D4                     i2u258_40:
  1083   0012D4                     
  1084                           ;MCAL_Layer/Interrupt/mcal_interrupt_manager.c: 125:     {;MCAL_Layer/Interrupt/mcal_int
      +                          errupt_manager.c: 126:         TMR0_ISR();
  1085   0012D4  EC86  F00A         	call	_TMR0_ISR	;wreg free
  1086   0012D8                     i2l1176:
  1087                           
  1088                           ;MCAL_Layer/Interrupt/mcal_interrupt_manager.c: 132:     if((1 == PIE1bits.TMR1IE) && (1
      +                           == PIR1bits.TMR1IF))
  1089   0012D8  A09D               	btfss	157,0,c	;volatile
  1090   0012DA  EF71  F009         	goto	i2u259_41
  1091   0012DE  EF73  F009         	goto	i2u259_40
  1092   0012E2                     i2u259_41:
  1093   0012E2  EF7C  F009         	goto	i2l1178
  1094   0012E6                     i2u259_40:
  1095   0012E6  A09E               	btfss	158,0,c	;volatile
  1096   0012E8  EF78  F009         	goto	i2u260_41
  1097   0012EC  EF7A  F009         	goto	i2u260_40
  1098   0012F0                     i2u260_41:
  1099   0012F0  EF7C  F009         	goto	i2l1178
  1100   0012F4                     i2u260_40:
  1101   0012F4                     
  1102                           ;MCAL_Layer/Interrupt/mcal_interrupt_manager.c: 133:     {;MCAL_Layer/Interrupt/mcal_int
      +                          errupt_manager.c: 134:         TMR1_ISR();
  1103   0012F4  EC80  F00A         	call	_TMR1_ISR	;wreg free
  1104   0012F8                     i2l1178:
  1105                           
  1106                           ;MCAL_Layer/Interrupt/mcal_interrupt_manager.c: 140:     if((1 == PIE1bits.TMR2IE) && (1
      +                           == PIR1bits.TMR2IF))
  1107   0012F8  A29D               	btfss	157,1,c	;volatile
  1108   0012FA  EF81  F009         	goto	i2u261_41
  1109   0012FE  EF83  F009         	goto	i2u261_40
  1110   001302                     i2u261_41:
  1111   001302  EF8C  F009         	goto	i2l1180
  1112   001306                     i2u261_40:
  1113   001306  A29E               	btfss	158,1,c	;volatile
  1114   001308  EF88  F009         	goto	i2u262_41
  1115   00130C  EF8A  F009         	goto	i2u262_40
  1116   001310                     i2u262_41:
  1117   001310  EF8C  F009         	goto	i2l1180
  1118   001314                     i2u262_40:
  1119   001314                     
  1120                           ;MCAL_Layer/Interrupt/mcal_interrupt_manager.c: 141:     {;MCAL_Layer/Interrupt/mcal_int
      +                          errupt_manager.c: 142:         TMR2_ISR();
  1121   001314  EC91  F00A         	call	_TMR2_ISR	;wreg free
  1122   001318                     i2l1180:
  1123                           
  1124                           ;MCAL_Layer/Interrupt/mcal_interrupt_manager.c: 148:     if((1 == PIE2bits.TMR3IE) && (1
      +                           == PIR2bits.TMR3IF))
  1125   001318  A2A0               	btfss	160,1,c	;volatile
  1126   00131A  EF91  F009         	goto	i2u263_41
  1127   00131E  EF93  F009         	goto	i2u263_40
  1128   001322                     i2u263_41:
  1129   001322  EF9C  F009         	goto	i2l1182
  1130   001326                     i2u263_40:
  1131   001326  A2A1               	btfss	161,1,c	;volatile
  1132   001328  EF98  F009         	goto	i2u264_41
  1133   00132C  EF9A  F009         	goto	i2u264_40
  1134   001330                     i2u264_41:
  1135   001330  EF9C  F009         	goto	i2l1182
  1136   001334                     i2u264_40:
  1137   001334                     
  1138                           ;MCAL_Layer/Interrupt/mcal_interrupt_manager.c: 149:     {;MCAL_Layer/Interrupt/mcal_int
      +                          errupt_manager.c: 150:         TMR3_ISR();
  1139   001334  EC7A  F00A         	call	_TMR3_ISR	;wreg free
  1140   001338                     i2l1182:
  1141                           
  1142                           ;MCAL_Layer/Interrupt/mcal_interrupt_manager.c: 157:     if((1 == PIE1bits.CCP1IE) && (1
      +                           == PIR1bits.CCP1IF))
  1143   001338  A49D               	btfss	157,2,c	;volatile
  1144   00133A  EFA1  F009         	goto	i2u265_41
  1145   00133E  EFA3  F009         	goto	i2u265_40
  1146   001342                     i2u265_41:
  1147   001342  EFAC  F009         	goto	i2l1184
  1148   001346                     i2u265_40:
  1149   001346  A49E               	btfss	158,2,c	;volatile
  1150   001348  EFA8  F009         	goto	i2u266_41
  1151   00134C  EFAA  F009         	goto	i2u266_40
  1152   001350                     i2u266_41:
  1153   001350  EFAC  F009         	goto	i2l1184
  1154   001354                     i2u266_40:
  1155   001354                     
  1156                           ;MCAL_Layer/Interrupt/mcal_interrupt_manager.c: 158:     {;MCAL_Layer/Interrupt/mcal_int
      +                          errupt_manager.c: 159:         CCP1_ISR();
  1157   001354  ECA3  F00A         	call	_CCP1_ISR	;wreg free
  1158   001358                     i2l1184:
  1159                           
  1160                           ;MCAL_Layer/Interrupt/mcal_interrupt_manager.c: 165:     if((1 == PIE2bits.CCP2IE) && (1
      +                           == PIR2bits.CCP2IF))
  1161   001358  A0A0               	btfss	160,0,c	;volatile
  1162   00135A  EFB1  F009         	goto	i2u267_41
  1163   00135E  EFB3  F009         	goto	i2u267_40
  1164   001362                     i2u267_41:
  1165   001362  EFBC  F009         	goto	i2l1186
  1166   001366                     i2u267_40:
  1167   001366  A0A1               	btfss	161,0,c	;volatile
  1168   001368  EFB8  F009         	goto	i2u268_41
  1169   00136C  EFBA  F009         	goto	i2u268_40
  1170   001370                     i2u268_41:
  1171   001370  EFBC  F009         	goto	i2l1186
  1172   001374                     i2u268_40:
  1173   001374                     
  1174                           ;MCAL_Layer/Interrupt/mcal_interrupt_manager.c: 166:     {;MCAL_Layer/Interrupt/mcal_int
      +                          errupt_manager.c: 167:         CCP2_ISR();
  1175   001374  ECA1  F00A         	call	_CCP2_ISR	;wreg free
  1176   001378                     i2l1186:
  1177                           
  1178                           ;MCAL_Layer/Interrupt/mcal_interrupt_manager.c: 174:     if((1 == PIE1bits.TXIE) && (1 =
      +                          = PIR1bits.TXIF))
  1179   001378  A89D               	btfss	157,4,c	;volatile
  1180   00137A  EFC1  F009         	goto	i2u269_41
  1181   00137E  EFC3  F009         	goto	i2u269_40
  1182   001382                     i2u269_41:
  1183   001382  EFCC  F009         	goto	i2l1188
  1184   001386                     i2u269_40:
  1185   001386  A89E               	btfss	158,4,c	;volatile
  1186   001388  EFC8  F009         	goto	i2u270_41
  1187   00138C  EFCA  F009         	goto	i2u270_40
  1188   001390                     i2u270_41:
  1189   001390  EFCC  F009         	goto	i2l1188
  1190   001394                     i2u270_40:
  1191   001394                     
  1192                           ;MCAL_Layer/Interrupt/mcal_interrupt_manager.c: 175:     {;MCAL_Layer/Interrupt/mcal_int
      +                          errupt_manager.c: 176:         EUSART_TX_ISR();
  1193   001394  EC9F  F00A         	call	_EUSART_TX_ISR	;wreg free
  1194   001398                     i2l1188:
  1195                           
  1196                           ;MCAL_Layer/Interrupt/mcal_interrupt_manager.c: 182:     if((1 == PIE1bits.RCIE) && (1 =
      +                          = PIR1bits.RCIF))
  1197   001398  AA9D               	btfss	157,5,c	;volatile
  1198   00139A  EFD1  F009         	goto	i2u271_41
  1199   00139E  EFD3  F009         	goto	i2u271_40
  1200   0013A2                     i2u271_41:
  1201   0013A2  EFDC  F009         	goto	i2l1190
  1202   0013A6                     i2u271_40:
  1203   0013A6  AA9E               	btfss	158,5,c	;volatile
  1204   0013A8  EFD8  F009         	goto	i2u272_41
  1205   0013AC  EFDA  F009         	goto	i2u272_40
  1206   0013B0                     i2u272_41:
  1207   0013B0  EFDC  F009         	goto	i2l1190
  1208   0013B4                     i2u272_40:
  1209   0013B4                     
  1210                           ;MCAL_Layer/Interrupt/mcal_interrupt_manager.c: 183:     {;MCAL_Layer/Interrupt/mcal_int
      +                          errupt_manager.c: 184:         EUSART_RX_ISR();
  1211   0013B4  ECA8  F00A         	call	_EUSART_RX_ISR	;wreg free
  1212   0013B8                     i2l1190:
  1213                           
  1214                           ;MCAL_Layer/Interrupt/mcal_interrupt_manager.c: 198:     if((1 == PIE1bits.SSPIE) && (1 
      +                          == PIR1bits.SSPIF))
  1215   0013B8  A69D               	btfss	157,3,c	;volatile
  1216   0013BA  EFE1  F009         	goto	i2u273_41
  1217   0013BE  EFE3  F009         	goto	i2u273_40
  1218   0013C2                     i2u273_41:
  1219   0013C2  EFEC  F009         	goto	i2l1192
  1220   0013C6                     i2u273_40:
  1221   0013C6  A69E               	btfss	158,3,c	;volatile
  1222   0013C8  EFE8  F009         	goto	i2u274_41
  1223   0013CC  EFEA  F009         	goto	i2u274_40
  1224   0013D0                     i2u274_41:
  1225   0013D0  EFEC  F009         	goto	i2l1192
  1226   0013D4                     i2u274_40:
  1227   0013D4                     
  1228                           ;MCAL_Layer/Interrupt/mcal_interrupt_manager.c: 199:     {;MCAL_Layer/Interrupt/mcal_int
      +                          errupt_manager.c: 200:         MSSP_I2C_ISR();
  1229   0013D4  EC95  F00A         	call	_MSSP_I2C_ISR	;wreg free
  1230   0013D8                     i2l1192:
  1231                           
  1232                           ;MCAL_Layer/Interrupt/mcal_interrupt_manager.c: 204:     if((1 == PIE2bits.BCLIE) && (1 
      +                          == PIR2bits.BCLIF))
  1233   0013D8  A6A0               	btfss	160,3,c	;volatile
  1234   0013DA  EFF1  F009         	goto	i2u275_41
  1235   0013DE  EFF3  F009         	goto	i2u275_40
  1236   0013E2                     i2u275_41:
  1237   0013E2  EFFC  F009         	goto	i2l1195
  1238   0013E6                     i2u275_40:
  1239   0013E6  A6A1               	btfss	161,3,c	;volatile
  1240   0013E8  EFF8  F009         	goto	i2u276_41
  1241   0013EC  EFFA  F009         	goto	i2u276_40
  1242   0013F0                     i2u276_41:
  1243   0013F0  EFFC  F009         	goto	i2l1195
  1244   0013F4                     i2u276_40:
  1245   0013F4                     
  1246                           ;MCAL_Layer/Interrupt/mcal_interrupt_manager.c: 205:     {;MCAL_Layer/Interrupt/mcal_int
      +                          errupt_manager.c: 206:         MSSP_I2C_BC_ISR();
  1247   0013F4  EC97  F00A         	call	_MSSP_I2C_BC_ISR	;wreg free
  1248   0013F8                     i2l1195:
  1249   0013F8  927A               	bcf	int$flags,1,c	;clear compiler interrupt flag (level 2)
  1250   0013FA  0011               	retfie		f
  1251   0013FC                     __end_of_InterruptManager:
  1252                           	callstack 0
  1253                           
  1254 ;; *************** function _TMR3_ISR *****************
  1255 ;; Defined at:
  1256 ;;		line 185 in file "MCAL_Layer/Timer3/hal_timer3.c"
  1257 ;; Parameters:    Size  Location     Type
  1258 ;;		None
  1259 ;; Auto vars:     Size  Location     Type
  1260 ;;		None
  1261 ;; Return value:  Size  Location     Type
  1262 ;;                  1    wreg      void 
  1263 ;; Registers used:
  1264 ;;		wreg, status,2
  1265 ;; Tracked objects:
  1266 ;;		On entry : 0/0
  1267 ;;		On exit  : 0/0
  1268 ;;		Unchanged: 0/0
  1269 ;; Data sizes:     COMRAM   BANK0   BANK1   BANK2   BANK3   BANK4   BANK5   BANK6   BANK7   BANK8   BANK9  BANK10  BANK1
      +1  BANK12  BANK13  BANK14  BANK15
  1270 ;;      Params:         0       0       0       0       0       0       0       0       0       0       0       0       
      +0       0       0       0       0
  1271 ;;      Locals:         0       0       0       0       0       0       0       0       0       0       0       0       
      +0       0       0       0       0
  1272 ;;      Temps:          0       0       0       0       0       0       0       0       0       0       0       0       
      +0       0       0       0       0
  1273 ;;      Totals:         0       0       0       0       0       0       0       0       0       0       0       0       
      +0       0       0       0       0
  1274 ;;Total ram usage:        0 bytes
  1275 ;; Hardware stack levels used: 1
  1276 ;; This function calls:
  1277 ;;		Nothing
  1278 ;; This function is called by:
  1279 ;;		_InterruptManager
  1280 ;; This function uses a non-reentrant model
  1281 ;;
  1282                           
  1283                           	psect	text3
  1284   0014F4                     __ptext3:
  1285                           	callstack 0
  1286   0014F4                     _TMR3_ISR:
  1287                           	callstack 28
  1288   0014F4                     
  1289                           ;MCAL_Layer/Timer3/hal_timer3.c: 187:     (PIR2bits.TMR3IF = 0);
  1290   0014F4  92A1               	bcf	161,1,c	;volatile
  1291   0014F6                     
  1292                           ;MCAL_Layer/Timer3/hal_timer3.c: 189:     TMR3H = (timer3_preload) >> 8;
  1293   0014F6  5014               	movf	(_timer3_preload+1)^0,w,c
  1294   0014F8  6EB3               	movwf	179,c	;volatile
  1295   0014FA                     
  1296                           ;MCAL_Layer/Timer3/hal_timer3.c: 190:     TMR3L = (uint8)(timer3_preload);
  1297   0014FA  C013  FFB2         	movff	_timer3_preload,4018	;volatile
  1298   0014FE  0012               	return		;funcret
  1299   001500                     __end_of_TMR3_ISR:
  1300                           	callstack 0
  1301                           
  1302 ;; *************** function _TMR2_ISR *****************
  1303 ;; Defined at:
  1304 ;;		line 155 in file "MCAL_Layer/Timer2/hal_timer2.c"
  1305 ;; Parameters:    Size  Location     Type
  1306 ;;		None
  1307 ;; Auto vars:     Size  Location     Type
  1308 ;;		None
  1309 ;; Return value:  Size  Location     Type
  1310 ;;                  1    wreg      void 
  1311 ;; Registers used:
  1312 ;;		None
  1313 ;; Tracked objects:
  1314 ;;		On entry : 0/0
  1315 ;;		On exit  : 0/0
  1316 ;;		Unchanged: 0/0
  1317 ;; Data sizes:     COMRAM   BANK0   BANK1   BANK2   BANK3   BANK4   BANK5   BANK6   BANK7   BANK8   BANK9  BANK10  BANK1
      +1  BANK12  BANK13  BANK14  BANK15
  1318 ;;      Params:         0       0       0       0       0       0       0       0       0       0       0       0       
      +0       0       0       0       0
  1319 ;;      Locals:         0       0       0       0       0       0       0       0       0       0       0       0       
      +0       0       0       0       0
  1320 ;;      Temps:          0       0       0       0       0       0       0       0       0       0       0       0       
      +0       0       0       0       0
  1321 ;;      Totals:         0       0       0       0       0       0       0       0       0       0       0       0       
      +0       0       0       0       0
  1322 ;;Total ram usage:        0 bytes
  1323 ;; Hardware stack levels used: 1
  1324 ;; This function calls:
  1325 ;;		Nothing
  1326 ;; This function is called by:
  1327 ;;		_InterruptManager
  1328 ;; This function uses a non-reentrant model
  1329 ;;
  1330                           
  1331                           	psect	text4
  1332   001522                     __ptext4:
  1333                           	callstack 0
  1334   001522                     _TMR2_ISR:
  1335                           	callstack 28
  1336   001522                     
  1337                           ;MCAL_Layer/Timer2/hal_timer2.c: 157:     (PIR1bits.TMR2IF = 0);
  1338   001522  929E               	bcf	158,1,c	;volatile
  1339                           
  1340                           ;MCAL_Layer/Timer2/hal_timer2.c: 158:     TMR2 = timer2_preload;
  1341   001524  C03D  FFCC         	movff	_timer2_preload,4044	;volatile
  1342   001528  0012               	return		;funcret
  1343   00152A                     __end_of_TMR2_ISR:
  1344                           	callstack 0
  1345                           
  1346 ;; *************** function _TMR1_ISR *****************
  1347 ;; Defined at:
  1348 ;;		line 162 in file "MCAL_Layer/Timer1/hal_timer1.c"
  1349 ;; Parameters:    Size  Location     Type
  1350 ;;		None
  1351 ;; Auto vars:     Size  Location     Type
  1352 ;;		None
  1353 ;; Return value:  Size  Location     Type
  1354 ;;                  1    wreg      void 
  1355 ;; Registers used:
  1356 ;;		wreg, status,2
  1357 ;; Tracked objects:
  1358 ;;		On entry : 0/0
  1359 ;;		On exit  : 0/0
  1360 ;;		Unchanged: 0/0
  1361 ;; Data sizes:     COMRAM   BANK0   BANK1   BANK2   BANK3   BANK4   BANK5   BANK6   BANK7   BANK8   BANK9  BANK10  BANK1
      +1  BANK12  BANK13  BANK14  BANK15
  1362 ;;      Params:         0       0       0       0       0       0       0       0       0       0       0       0       
      +0       0       0       0       0
  1363 ;;      Locals:         0       0       0       0       0       0       0       0       0       0       0       0       
      +0       0       0       0       0
  1364 ;;      Temps:          0       0       0       0       0       0       0       0       0       0       0       0       
      +0       0       0       0       0
  1365 ;;      Totals:         0       0       0       0       0       0       0       0       0       0       0       0       
      +0       0       0       0       0
  1366 ;;Total ram usage:        0 bytes
  1367 ;; Hardware stack levels used: 1
  1368 ;; This function calls:
  1369 ;;		Nothing
  1370 ;; This function is called by:
  1371 ;;		_InterruptManager
  1372 ;; This function uses a non-reentrant model
  1373 ;;
  1374                           
  1375                           	psect	text5
  1376   001500                     __ptext5:
  1377                           	callstack 0
  1378   001500                     _TMR1_ISR:
  1379                           	callstack 28
  1380   001500                     
  1381                           ;MCAL_Layer/Timer1/hal_timer1.c: 164:     (PIR1bits.TMR1IF = 0);
  1382   001500  909E               	bcf	158,0,c	;volatile
  1383   001502                     
  1384                           ;MCAL_Layer/Timer1/hal_timer1.c: 165:     TMR1H = (timer1_preload) >> 8;
  1385   001502  501A               	movf	(_timer1_preload+1)^0,w,c	;volatile
  1386   001504  6ECF               	movwf	207,c	;volatile
  1387   001506                     
  1388                           ;MCAL_Layer/Timer1/hal_timer1.c: 166:     TMR1L = (uint8)(timer1_preload);
  1389   001506  C019  FFCE         	movff	_timer1_preload,4046	;volatile
  1390   00150A  0012               	return		;funcret
  1391   00150C                     __end_of_TMR1_ISR:
  1392                           	callstack 0
  1393                           
  1394 ;; *************** function _TMR0_ISR *****************
  1395 ;; Defined at:
  1396 ;;		line 167 in file "MCAL_Layer/Timer0/hal_timer0.c"
  1397 ;; Parameters:    Size  Location     Type
  1398 ;;		None
  1399 ;; Auto vars:     Size  Location     Type
  1400 ;;		None
  1401 ;; Return value:  Size  Location     Type
  1402 ;;                  1    wreg      void 
  1403 ;; Registers used:
  1404 ;;		wreg, status,2
  1405 ;; Tracked objects:
  1406 ;;		On entry : 0/0
  1407 ;;		On exit  : 0/0
  1408 ;;		Unchanged: 0/0
  1409 ;; Data sizes:     COMRAM   BANK0   BANK1   BANK2   BANK3   BANK4   BANK5   BANK6   BANK7   BANK8   BANK9  BANK10  BANK1
      +1  BANK12  BANK13  BANK14  BANK15
  1410 ;;      Params:         0       0       0       0       0       0       0       0       0       0       0       0       
      +0       0       0       0       0
  1411 ;;      Locals:         0       0       0       0       0       0       0       0       0       0       0       0       
      +0       0       0       0       0
  1412 ;;      Temps:          0       0       0       0       0       0       0       0       0       0       0       0       
      +0       0       0       0       0
  1413 ;;      Totals:         0       0       0       0       0       0       0       0       0       0       0       0       
      +0       0       0       0       0
  1414 ;;Total ram usage:        0 bytes
  1415 ;; Hardware stack levels used: 1
  1416 ;; This function calls:
  1417 ;;		Nothing
  1418 ;; This function is called by:
  1419 ;;		_InterruptManager
  1420 ;; This function uses a non-reentrant model
  1421 ;;
  1422                           
  1423                           	psect	text6
  1424   00150C                     __ptext6:
  1425                           	callstack 0
  1426   00150C                     _TMR0_ISR:
  1427                           	callstack 28
  1428   00150C                     
  1429                           ;MCAL_Layer/Timer0/hal_timer0.c: 169:     (INTCONbits.TMR0IF = 0);
  1430   00150C  94F2               	bcf	242,2,c	;volatile
  1431   00150E                     
  1432                           ;MCAL_Layer/Timer0/hal_timer0.c: 170:     TMR0H = (timer0_preload) >> 8;
  1433   00150E  501E               	movf	(_timer0_preload+1)^0,w,c
  1434   001510  6ED7               	movwf	215,c	;volatile
  1435   001512                     
  1436                           ;MCAL_Layer/Timer0/hal_timer0.c: 171:     TMR0L = (uint8)(timer0_preload);
  1437   001512  C01D  FFD6         	movff	_timer0_preload,4054	;volatile
  1438   001516  0012               	return		;funcret
  1439   001518                     __end_of_TMR0_ISR:
  1440                           	callstack 0
  1441                           
  1442 ;; *************** function _RB7_ISR *****************
  1443 ;; Defined at:
  1444 ;;		line 147 in file "MCAL_Layer/Interrupt/mcal_external_interrupt.c"
  1445 ;; Parameters:    Size  Location     Type
  1446 ;;  RB7_Source      1    wreg     unsigned char 
  1447 ;; Auto vars:     Size  Location     Type
  1448 ;;  RB7_Source      1    0[COMRAM] unsigned char 
  1449 ;; Return value:  Size  Location     Type
  1450 ;;                  1    wreg      void 
  1451 ;; Registers used:
  1452 ;;		wreg, status,2, status,0
  1453 ;; Tracked objects:
  1454 ;;		On entry : 0/0
  1455 ;;		On exit  : 0/0
  1456 ;;		Unchanged: 0/0
  1457 ;; Data sizes:     COMRAM   BANK0   BANK1   BANK2   BANK3   BANK4   BANK5   BANK6   BANK7   BANK8   BANK9  BANK10  BANK1
      +1  BANK12  BANK13  BANK14  BANK15
  1458 ;;      Params:         0       0       0       0       0       0       0       0       0       0       0       0       
      +0       0       0       0       0
  1459 ;;      Locals:         1       0       0       0       0       0       0       0       0       0       0       0       
      +0       0       0       0       0
  1460 ;;      Temps:          0       0       0       0       0       0       0       0       0       0       0       0       
      +0       0       0       0       0
  1461 ;;      Totals:         1       0       0       0       0       0       0       0       0       0       0       0       
      +0       0       0       0       0
  1462 ;;Total ram usage:        1 bytes
  1463 ;; Hardware stack levels used: 1
  1464 ;; This function calls:
  1465 ;;		Nothing
  1466 ;; This function is called by:
  1467 ;;		_InterruptManager
  1468 ;; This function uses a non-reentrant model
  1469 ;;
  1470                           
  1471                           	psect	text7
  1472   001480                     __ptext7:
  1473                           	callstack 0
  1474   001480                     _RB7_ISR:
  1475                           	callstack 28
  1476                           
  1477                           ;incstack = 0
  1478                           ;RB7_ISR@RB7_Source stored from wreg
  1479   001480  6E79               	movwf	RB7_ISR@RB7_Source^0,c
  1480   001482                     
  1481                           ;MCAL_Layer/Interrupt/mcal_external_interrupt.c: 147: void RB7_ISR(uint8 RB7_Source);MCA
      +                          L_Layer/Interrupt/mcal_external_interrupt.c: 148: {;MCAL_Layer/Interrupt/mcal_external_i
      +                          nterrupt.c: 150:     (INTCONbits.RBIF = 0);
  1482   001482  90F2               	bcf	242,0,c	;volatile
  1483   001484                     
  1484                           ;MCAL_Layer/Interrupt/mcal_external_interrupt.c: 153:     if(0 == RB7_Source)
  1485   001484  5079               	movf	RB7_ISR@RB7_Source^0,w,c
  1486   001486  A4D8               	btfss	status,2,c
  1487   001488  EF48  F00A         	goto	i2u43_41
  1488   00148C  EF4A  F00A         	goto	i2u43_40
  1489   001490                     i2u43_41:
  1490   001490  EF4C  F00A         	goto	i2l2948
  1491   001494                     i2u43_40:
  1492   001494  EF4C  F00A         	goto	i2l968
  1493   001498                     i2l2948:
  1494   001498                     i2l968:
  1495   001498  0012               	return		;funcret
  1496   00149A                     __end_of_RB7_ISR:
  1497                           	callstack 0
  1498                           
  1499 ;; *************** function _RB6_ISR *****************
  1500 ;; Defined at:
  1501 ;;		line 125 in file "MCAL_Layer/Interrupt/mcal_external_interrupt.c"
  1502 ;; Parameters:    Size  Location     Type
  1503 ;;  RB6_Source      1    wreg     unsigned char 
  1504 ;; Auto vars:     Size  Location     Type
  1505 ;;  RB6_Source      1    0[COMRAM] unsigned char 
  1506 ;; Return value:  Size  Location     Type
  1507 ;;                  1    wreg      void 
  1508 ;; Registers used:
  1509 ;;		wreg, status,2, status,0
  1510 ;; Tracked objects:
  1511 ;;		On entry : 0/0
  1512 ;;		On exit  : 0/0
  1513 ;;		Unchanged: 0/0
  1514 ;; Data sizes:     COMRAM   BANK0   BANK1   BANK2   BANK3   BANK4   BANK5   BANK6   BANK7   BANK8   BANK9  BANK10  BANK1
      +1  BANK12  BANK13  BANK14  BANK15
  1515 ;;      Params:         0       0       0       0       0       0       0       0       0       0       0       0       
      +0       0       0       0       0
  1516 ;;      Locals:         1       0       0       0       0       0       0       0       0       0       0       0       
      +0       0       0       0       0
  1517 ;;      Temps:          0       0       0       0       0       0       0       0       0       0       0       0       
      +0       0       0       0       0
  1518 ;;      Totals:         1       0       0       0       0       0       0       0       0       0       0       0       
      +0       0       0       0       0
  1519 ;;Total ram usage:        1 bytes
  1520 ;; Hardware stack levels used: 1
  1521 ;; This function calls:
  1522 ;;		Nothing
  1523 ;; This function is called by:
  1524 ;;		_InterruptManager
  1525 ;; This function uses a non-reentrant model
  1526 ;;
  1527                           
  1528                           	psect	text8
  1529   00149A                     __ptext8:
  1530                           	callstack 0
  1531   00149A                     _RB6_ISR:
  1532                           	callstack 28
  1533                           
  1534                           ;incstack = 0
  1535                           ;RB6_ISR@RB6_Source stored from wreg
  1536   00149A  6E79               	movwf	RB6_ISR@RB6_Source^0,c
  1537   00149C                     
  1538                           ;MCAL_Layer/Interrupt/mcal_external_interrupt.c: 125: void RB6_ISR(uint8 RB6_Source);MCA
      +                          L_Layer/Interrupt/mcal_external_interrupt.c: 126: {;MCAL_Layer/Interrupt/mcal_external_i
      +                          nterrupt.c: 128:     (INTCONbits.RBIF = 0);
  1539   00149C  90F2               	bcf	242,0,c	;volatile
  1540   00149E                     
  1541                           ;MCAL_Layer/Interrupt/mcal_external_interrupt.c: 131:     if(0 == RB6_Source)
  1542   00149E  5079               	movf	RB6_ISR@RB6_Source^0,w,c
  1543   0014A0  A4D8               	btfss	status,2,c
  1544   0014A2  EF55  F00A         	goto	i2u42_41
  1545   0014A6  EF57  F00A         	goto	i2u42_40
  1546   0014AA                     i2u42_41:
  1547   0014AA  EF59  F00A         	goto	i2l2934
  1548   0014AE                     i2u42_40:
  1549   0014AE  EF59  F00A         	goto	i2l957
  1550   0014B2                     i2l2934:
  1551   0014B2                     i2l957:
  1552   0014B2  0012               	return		;funcret
  1553   0014B4                     __end_of_RB6_ISR:
  1554                           	callstack 0
  1555                           
  1556 ;; *************** function _RB5_ISR *****************
  1557 ;; Defined at:
  1558 ;;		line 103 in file "MCAL_Layer/Interrupt/mcal_external_interrupt.c"
  1559 ;; Parameters:    Size  Location     Type
  1560 ;;  RB5_Source      1    wreg     unsigned char 
  1561 ;; Auto vars:     Size  Location     Type
  1562 ;;  RB5_Source      1    0[COMRAM] unsigned char 
  1563 ;; Return value:  Size  Location     Type
  1564 ;;                  1    wreg      void 
  1565 ;; Registers used:
  1566 ;;		wreg, status,2, status,0
  1567 ;; Tracked objects:
  1568 ;;		On entry : 0/0
  1569 ;;		On exit  : 0/0
  1570 ;;		Unchanged: 0/0
  1571 ;; Data sizes:     COMRAM   BANK0   BANK1   BANK2   BANK3   BANK4   BANK5   BANK6   BANK7   BANK8   BANK9  BANK10  BANK1
      +1  BANK12  BANK13  BANK14  BANK15
  1572 ;;      Params:         0       0       0       0       0       0       0       0       0       0       0       0       
      +0       0       0       0       0
  1573 ;;      Locals:         1       0       0       0       0       0       0       0       0       0       0       0       
      +0       0       0       0       0
  1574 ;;      Temps:          0       0       0       0       0       0       0       0       0       0       0       0       
      +0       0       0       0       0
  1575 ;;      Totals:         1       0       0       0       0       0       0       0       0       0       0       0       
      +0       0       0       0       0
  1576 ;;Total ram usage:        1 bytes
  1577 ;; Hardware stack levels used: 1
  1578 ;; This function calls:
  1579 ;;		Nothing
  1580 ;; This function is called by:
  1581 ;;		_InterruptManager
  1582 ;; This function uses a non-reentrant model
  1583 ;;
  1584                           
  1585                           	psect	text9
  1586   0014B4                     __ptext9:
  1587                           	callstack 0
  1588   0014B4                     _RB5_ISR:
  1589                           	callstack 28
  1590                           
  1591                           ;incstack = 0
  1592                           ;RB5_ISR@RB5_Source stored from wreg
  1593   0014B4  6E79               	movwf	RB5_ISR@RB5_Source^0,c
  1594   0014B6                     
  1595                           ;MCAL_Layer/Interrupt/mcal_external_interrupt.c: 103: void RB5_ISR(uint8 RB5_Source);MCA
      +                          L_Layer/Interrupt/mcal_external_interrupt.c: 104: {;MCAL_Layer/Interrupt/mcal_external_i
      +                          nterrupt.c: 106:     (INTCONbits.RBIF = 0);
  1596   0014B6  90F2               	bcf	242,0,c	;volatile
  1597   0014B8                     
  1598                           ;MCAL_Layer/Interrupt/mcal_external_interrupt.c: 109:     if(0 == RB5_Source)
  1599   0014B8  5079               	movf	RB5_ISR@RB5_Source^0,w,c
  1600   0014BA  A4D8               	btfss	status,2,c
  1601   0014BC  EF62  F00A         	goto	i2u41_41
  1602   0014C0  EF64  F00A         	goto	i2u41_40
  1603   0014C4                     i2u41_41:
  1604   0014C4  EF66  F00A         	goto	i2l2920
  1605   0014C8                     i2u41_40:
  1606   0014C8  EF66  F00A         	goto	i2l946
  1607   0014CC                     i2l2920:
  1608   0014CC                     i2l946:
  1609   0014CC  0012               	return		;funcret
  1610   0014CE                     __end_of_RB5_ISR:
  1611                           	callstack 0
  1612                           
  1613 ;; *************** function _RB4_ISR *****************
  1614 ;; Defined at:
  1615 ;;		line 81 in file "MCAL_Layer/Interrupt/mcal_external_interrupt.c"
  1616 ;; Parameters:    Size  Location     Type
  1617 ;;  RB4_Source      1    wreg     unsigned char 
  1618 ;; Auto vars:     Size  Location     Type
  1619 ;;  RB4_Source      1    0[COMRAM] unsigned char 
  1620 ;; Return value:  Size  Location     Type
  1621 ;;                  1    wreg      void 
  1622 ;; Registers used:
  1623 ;;		wreg, status,2, status,0
  1624 ;; Tracked objects:
  1625 ;;		On entry : 0/0
  1626 ;;		On exit  : 0/0
  1627 ;;		Unchanged: 0/0
  1628 ;; Data sizes:     COMRAM   BANK0   BANK1   BANK2   BANK3   BANK4   BANK5   BANK6   BANK7   BANK8   BANK9  BANK10  BANK1
      +1  BANK12  BANK13  BANK14  BANK15
  1629 ;;      Params:         0       0       0       0       0       0       0       0       0       0       0       0       
      +0       0       0       0       0
  1630 ;;      Locals:         1       0       0       0       0       0       0       0       0       0       0       0       
      +0       0       0       0       0
  1631 ;;      Temps:          0       0       0       0       0       0       0       0       0       0       0       0       
      +0       0       0       0       0
  1632 ;;      Totals:         1       0       0       0       0       0       0       0       0       0       0       0       
      +0       0       0       0       0
  1633 ;;Total ram usage:        1 bytes
  1634 ;; Hardware stack levels used: 1
  1635 ;; This function calls:
  1636 ;;		Nothing
  1637 ;; This function is called by:
  1638 ;;		_InterruptManager
  1639 ;; This function uses a non-reentrant model
  1640 ;;
  1641                           
  1642                           	psect	text10
  1643   0014CE                     __ptext10:
  1644                           	callstack 0
  1645   0014CE                     _RB4_ISR:
  1646                           	callstack 28
  1647                           
  1648                           ;incstack = 0
  1649                           ;RB4_ISR@RB4_Source stored from wreg
  1650   0014CE  6E79               	movwf	RB4_ISR@RB4_Source^0,c
  1651   0014D0                     
  1652                           ;MCAL_Layer/Interrupt/mcal_external_interrupt.c: 81: void RB4_ISR(uint8 RB4_Source);MCAL
      +                          _Layer/Interrupt/mcal_external_interrupt.c: 82: {;MCAL_Layer/Interrupt/mcal_external_int
      +                          errupt.c: 84:     (INTCONbits.RBIF = 0);
  1653   0014D0  90F2               	bcf	242,0,c	;volatile
  1654   0014D2                     
  1655                           ;MCAL_Layer/Interrupt/mcal_external_interrupt.c: 87:     if(0 == RB4_Source)
  1656   0014D2  5079               	movf	RB4_ISR@RB4_Source^0,w,c
  1657   0014D4  A4D8               	btfss	status,2,c
  1658   0014D6  EF6F  F00A         	goto	i2u40_41
  1659   0014DA  EF71  F00A         	goto	i2u40_40
  1660   0014DE                     i2u40_41:
  1661   0014DE  EF73  F00A         	goto	i2l2906
  1662   0014E2                     i2u40_40:
  1663   0014E2  EF73  F00A         	goto	i2l935
  1664   0014E6                     i2l2906:
  1665   0014E6                     i2l935:
  1666   0014E6  0012               	return		;funcret
  1667   0014E8                     __end_of_RB4_ISR:
  1668                           	callstack 0
  1669                           
  1670 ;; *************** function _MSSP_I2C_ISR *****************
  1671 ;; Defined at:
  1672 ;;		line 296 in file "MCAL_Layer/I2C/hal_i2c.c"
  1673 ;; Parameters:    Size  Location     Type
  1674 ;;		None
  1675 ;; Auto vars:     Size  Location     Type
  1676 ;;		None
  1677 ;; Return value:  Size  Location     Type
  1678 ;;                  1    wreg      void 
  1679 ;; Registers used:
  1680 ;;		None
  1681 ;; Tracked objects:
  1682 ;;		On entry : 0/0
  1683 ;;		On exit  : 0/0
  1684 ;;		Unchanged: 0/0
  1685 ;; Data sizes:     COMRAM   BANK0   BANK1   BANK2   BANK3   BANK4   BANK5   BANK6   BANK7   BANK8   BANK9  BANK10  BANK1
      +1  BANK12  BANK13  BANK14  BANK15
  1686 ;;      Params:         0       0       0       0       0       0       0       0       0       0       0       0       
      +0       0       0       0       0
  1687 ;;      Locals:         0       0       0       0       0       0       0       0       0       0       0       0       
      +0       0       0       0       0
  1688 ;;      Temps:          0       0       0       0       0       0       0       0       0       0       0       0       
      +0       0       0       0       0
  1689 ;;      Totals:         0       0       0       0       0       0       0       0       0       0       0       0       
      +0       0       0       0       0
  1690 ;;Total ram usage:        0 bytes
  1691 ;; Hardware stack levels used: 1
  1692 ;; This function calls:
  1693 ;;		Nothing
  1694 ;; This function is called by:
  1695 ;;		_InterruptManager
  1696 ;; This function uses a non-reentrant model
  1697 ;;
  1698                           
  1699                           	psect	text11
  1700   00152A                     __ptext11:
  1701                           	callstack 0
  1702   00152A                     _MSSP_I2C_ISR:
  1703                           	callstack 28
  1704   00152A                     
  1705                           ;MCAL_Layer/I2C/hal_i2c.c: 299:     (PIR1bits.SSPIF = 0);
  1706   00152A  969E               	bcf	158,3,c	;volatile
  1707   00152C  0012               	return		;funcret
  1708   00152E                     __end_of_MSSP_I2C_ISR:
  1709                           	callstack 0
  1710                           
  1711 ;; *************** function _MSSP_I2C_BC_ISR *****************
  1712 ;; Defined at:
  1713 ;;		line 307 in file "MCAL_Layer/I2C/hal_i2c.c"
  1714 ;; Parameters:    Size  Location     Type
  1715 ;;		None
  1716 ;; Auto vars:     Size  Location     Type
  1717 ;;		None
  1718 ;; Return value:  Size  Location     Type
  1719 ;;                  1    wreg      void 
  1720 ;; Registers used:
  1721 ;;		None
  1722 ;; Tracked objects:
  1723 ;;		On entry : 0/0
  1724 ;;		On exit  : 0/0
  1725 ;;		Unchanged: 0/0
  1726 ;; Data sizes:     COMRAM   BANK0   BANK1   BANK2   BANK3   BANK4   BANK5   BANK6   BANK7   BANK8   BANK9  BANK10  BANK1
      +1  BANK12  BANK13  BANK14  BANK15
  1727 ;;      Params:         0       0       0       0       0       0       0       0       0       0       0       0       
      +0       0       0       0       0
  1728 ;;      Locals:         0       0       0       0       0       0       0       0       0       0       0       0       
      +0       0       0       0       0
  1729 ;;      Temps:          0       0       0       0       0       0       0       0       0       0       0       0       
      +0       0       0       0       0
  1730 ;;      Totals:         0       0       0       0       0       0       0       0       0       0       0       0       
      +0       0       0       0       0
  1731 ;;Total ram usage:        0 bytes
  1732 ;; Hardware stack levels used: 1
  1733 ;; This function calls:
  1734 ;;		Nothing
  1735 ;; This function is called by:
  1736 ;;		_InterruptManager
  1737 ;; This function uses a non-reentrant model
  1738 ;;
  1739                           
  1740                           	psect	text12
  1741   00152E                     __ptext12:
  1742                           	callstack 0
  1743   00152E                     _MSSP_I2C_BC_ISR:
  1744                           	callstack 28
  1745   00152E                     
  1746                           ;MCAL_Layer/I2C/hal_i2c.c: 310:     (PIR2bits.BCLIF = 0);
  1747   00152E  96A1               	bcf	161,3,c	;volatile
  1748   001530  0012               	return		;funcret
  1749   001532                     __end_of_MSSP_I2C_BC_ISR:
  1750                           	callstack 0
  1751                           
  1752 ;; *************** function _INT2_ISR *****************
  1753 ;; Defined at:
  1754 ;;		line 68 in file "MCAL_Layer/Interrupt/mcal_external_interrupt.c"
  1755 ;; Parameters:    Size  Location     Type
  1756 ;;		None
  1757 ;; Auto vars:     Size  Location     Type
  1758 ;;		None
  1759 ;; Return value:  Size  Location     Type
  1760 ;;                  1    wreg      void 
  1761 ;; Registers used:
  1762 ;;		None
  1763 ;; Tracked objects:
  1764 ;;		On entry : 0/0
  1765 ;;		On exit  : 0/0
  1766 ;;		Unchanged: 0/0
  1767 ;; Data sizes:     COMRAM   BANK0   BANK1   BANK2   BANK3   BANK4   BANK5   BANK6   BANK7   BANK8   BANK9  BANK10  BANK1
      +1  BANK12  BANK13  BANK14  BANK15
  1768 ;;      Params:         0       0       0       0       0       0       0       0       0       0       0       0       
      +0       0       0       0       0
  1769 ;;      Locals:         0       0       0       0       0       0       0       0       0       0       0       0       
      +0       0       0       0       0
  1770 ;;      Temps:          0       0       0       0       0       0       0       0       0       0       0       0       
      +0       0       0       0       0
  1771 ;;      Totals:         0       0       0       0       0       0       0       0       0       0       0       0       
      +0       0       0       0       0
  1772 ;;Total ram usage:        0 bytes
  1773 ;; Hardware stack levels used: 1
  1774 ;; This function calls:
  1775 ;;		Nothing
  1776 ;; This function is called by:
  1777 ;;		_InterruptManager
  1778 ;; This function uses a non-reentrant model
  1779 ;;
  1780                           
  1781                           	psect	text13
  1782   001532                     __ptext13:
  1783                           	callstack 0
  1784   001532                     _INT2_ISR:
  1785                           	callstack 28
  1786   001532                     
  1787                           ;MCAL_Layer/Interrupt/mcal_external_interrupt.c: 71:     (INTCON3bits.INT2IF = 0);
  1788   001532  92F0               	bcf	240,1,c	;volatile
  1789   001534  0012               	return		;funcret
  1790   001536                     __end_of_INT2_ISR:
  1791                           	callstack 0
  1792                           
  1793 ;; *************** function _INT1_ISR *****************
  1794 ;; Defined at:
  1795 ;;		line 55 in file "MCAL_Layer/Interrupt/mcal_external_interrupt.c"
  1796 ;; Parameters:    Size  Location     Type
  1797 ;;		None
  1798 ;; Auto vars:     Size  Location     Type
  1799 ;;		None
  1800 ;; Return value:  Size  Location     Type
  1801 ;;                  1    wreg      void 
  1802 ;; Registers used:
  1803 ;;		None
  1804 ;; Tracked objects:
  1805 ;;		On entry : 0/0
  1806 ;;		On exit  : 0/0
  1807 ;;		Unchanged: 0/0
  1808 ;; Data sizes:     COMRAM   BANK0   BANK1   BANK2   BANK3   BANK4   BANK5   BANK6   BANK7   BANK8   BANK9  BANK10  BANK1
      +1  BANK12  BANK13  BANK14  BANK15
  1809 ;;      Params:         0       0       0       0       0       0       0       0       0       0       0       0       
      +0       0       0       0       0
  1810 ;;      Locals:         0       0       0       0       0       0       0       0       0       0       0       0       
      +0       0       0       0       0
  1811 ;;      Temps:          0       0       0       0       0       0       0       0       0       0       0       0       
      +0       0       0       0       0
  1812 ;;      Totals:         0       0       0       0       0       0       0       0       0       0       0       0       
      +0       0       0       0       0
  1813 ;;Total ram usage:        0 bytes
  1814 ;; Hardware stack levels used: 1
  1815 ;; This function calls:
  1816 ;;		Nothing
  1817 ;; This function is called by:
  1818 ;;		_InterruptManager
  1819 ;; This function uses a non-reentrant model
  1820 ;;
  1821                           
  1822                           	psect	text14
  1823   001536                     __ptext14:
  1824                           	callstack 0
  1825   001536                     _INT1_ISR:
  1826                           	callstack 28
  1827   001536                     
  1828                           ;MCAL_Layer/Interrupt/mcal_external_interrupt.c: 58:     (INTCON3bits.INT1IF = 0);
  1829   001536  90F0               	bcf	240,0,c	;volatile
  1830   001538  0012               	return		;funcret
  1831   00153A                     __end_of_INT1_ISR:
  1832                           	callstack 0
  1833                           
  1834 ;; *************** function _INT0_ISR *****************
  1835 ;; Defined at:
  1836 ;;		line 42 in file "MCAL_Layer/Interrupt/mcal_external_interrupt.c"
  1837 ;; Parameters:    Size  Location     Type
  1838 ;;		None
  1839 ;; Auto vars:     Size  Location     Type
  1840 ;;		None
  1841 ;; Return value:  Size  Location     Type
  1842 ;;                  1    wreg      void 
  1843 ;; Registers used:
  1844 ;;		None
  1845 ;; Tracked objects:
  1846 ;;		On entry : 0/0
  1847 ;;		On exit  : 0/0
  1848 ;;		Unchanged: 0/0
  1849 ;; Data sizes:     COMRAM   BANK0   BANK1   BANK2   BANK3   BANK4   BANK5   BANK6   BANK7   BANK8   BANK9  BANK10  BANK1
      +1  BANK12  BANK13  BANK14  BANK15
  1850 ;;      Params:         0       0       0       0       0       0       0       0       0       0       0       0       
      +0       0       0       0       0
  1851 ;;      Locals:         0       0       0       0       0       0       0       0       0       0       0       0       
      +0       0       0       0       0
  1852 ;;      Temps:          0       0       0       0       0       0       0       0       0       0       0       0       
      +0       0       0       0       0
  1853 ;;      Totals:         0       0       0       0       0       0       0       0       0       0       0       0       
      +0       0       0       0       0
  1854 ;;Total ram usage:        0 bytes
  1855 ;; Hardware stack levels used: 1
  1856 ;; This function calls:
  1857 ;;		Nothing
  1858 ;; This function is called by:
  1859 ;;		_InterruptManager
  1860 ;; This function uses a non-reentrant model
  1861 ;;
  1862                           
  1863                           	psect	text15
  1864   00153A                     __ptext15:
  1865                           	callstack 0
  1866   00153A                     _INT0_ISR:
  1867                           	callstack 28
  1868   00153A                     
  1869                           ;MCAL_Layer/Interrupt/mcal_external_interrupt.c: 45:     (INTCONbits.INT0IF = 0);
  1870   00153A  92F2               	bcf	242,1,c	;volatile
  1871   00153C  0012               	return		;funcret
  1872   00153E                     __end_of_INT0_ISR:
  1873                           	callstack 0
  1874                           
  1875 ;; *************** function _EUSART_TX_ISR *****************
  1876 ;; Defined at:
  1877 ;;		line 326 in file "MCAL_Layer/USART/hal_usart.c"
  1878 ;; Parameters:    Size  Location     Type
  1879 ;;		None
  1880 ;; Auto vars:     Size  Location     Type
  1881 ;;		None
  1882 ;; Return value:  Size  Location     Type
  1883 ;;                  1    wreg      void 
  1884 ;; Registers used:
  1885 ;;		None
  1886 ;; Tracked objects:
  1887 ;;		On entry : 0/0
  1888 ;;		On exit  : 0/0
  1889 ;;		Unchanged: 0/0
  1890 ;; Data sizes:     COMRAM   BANK0   BANK1   BANK2   BANK3   BANK4   BANK5   BANK6   BANK7   BANK8   BANK9  BANK10  BANK1
      +1  BANK12  BANK13  BANK14  BANK15
  1891 ;;      Params:         0       0       0       0       0       0       0       0       0       0       0       0       
      +0       0       0       0       0
  1892 ;;      Locals:         0       0       0       0       0       0       0       0       0       0       0       0       
      +0       0       0       0       0
  1893 ;;      Temps:          0       0       0       0       0       0       0       0       0       0       0       0       
      +0       0       0       0       0
  1894 ;;      Totals:         0       0       0       0       0       0       0       0       0       0       0       0       
      +0       0       0       0       0
  1895 ;;Total ram usage:        0 bytes
  1896 ;; Hardware stack levels used: 1
  1897 ;; This function calls:
  1898 ;;		Nothing
  1899 ;; This function is called by:
  1900 ;;		_InterruptManager
  1901 ;; This function uses a non-reentrant model
  1902 ;;
  1903                           
  1904                           	psect	text16
  1905   00153E                     __ptext16:
  1906                           	callstack 0
  1907   00153E                     _EUSART_TX_ISR:
  1908                           	callstack 28
  1909   00153E                     
  1910                           ;MCAL_Layer/USART/hal_usart.c: 328:     (PIE1bits.TXIE = 0);
  1911   00153E  989D               	bcf	157,4,c	;volatile
  1912   001540  0012               	return		;funcret
  1913   001542                     __end_of_EUSART_TX_ISR:
  1914                           	callstack 0
  1915                           
  1916 ;; *************** function _EUSART_RX_ISR *****************
  1917 ;; Defined at:
  1918 ;;		line 338 in file "MCAL_Layer/USART/hal_usart.c"
  1919 ;; Parameters:    Size  Location     Type
  1920 ;;		None
  1921 ;; Auto vars:     Size  Location     Type
  1922 ;;		None
  1923 ;; Return value:  Size  Location     Type
  1924 ;;                  1    wreg      void 
  1925 ;; Registers used:
  1926 ;;		wreg, status,2, status,0
  1927 ;; Tracked objects:
  1928 ;;		On entry : 0/0
  1929 ;;		On exit  : 0/0
  1930 ;;		Unchanged: 0/0
  1931 ;; Data sizes:     COMRAM   BANK0   BANK1   BANK2   BANK3   BANK4   BANK5   BANK6   BANK7   BANK8   BANK9  BANK10  BANK1
      +1  BANK12  BANK13  BANK14  BANK15
  1932 ;;      Params:         0       0       0       0       0       0       0       0       0       0       0       0       
      +0       0       0       0       0
  1933 ;;      Locals:         0       0       0       0       0       0       0       0       0       0       0       0       
      +0       0       0       0       0
  1934 ;;      Temps:          0       0       0       0       0       0       0       0       0       0       0       0       
      +0       0       0       0       0
  1935 ;;      Totals:         0       0       0       0       0       0       0       0       0       0       0       0       
      +0       0       0       0       0
  1936 ;;Total ram usage:        0 bytes
  1937 ;; Hardware stack levels used: 1
  1938 ;; This function calls:
  1939 ;;		Nothing
  1940 ;; This function is called by:
  1941 ;;		_InterruptManager
  1942 ;; This function uses a non-reentrant model
  1943 ;;
  1944                           
  1945                           	psect	text17
  1946   001550                     __ptext17:
  1947                           	callstack 0
  1948   001550                     _EUSART_RX_ISR:
  1949                           	callstack 28
  1950   001550  0012               	return		;funcret
  1951   001552                     __end_of_EUSART_RX_ISR:
  1952                           	callstack 0
  1953                           
  1954 ;; *************** function _CCP2_ISR *****************
  1955 ;; Defined at:
  1956 ;;		line 352 in file "MCAL_Layer/CCP/hal_ccp.c"
  1957 ;; Parameters:    Size  Location     Type
  1958 ;;		None
  1959 ;; Auto vars:     Size  Location     Type
  1960 ;;		None
  1961 ;; Return value:  Size  Location     Type
  1962 ;;                  1    wreg      void 
  1963 ;; Registers used:
  1964 ;;		None
  1965 ;; Tracked objects:
  1966 ;;		On entry : 0/0
  1967 ;;		On exit  : 0/0
  1968 ;;		Unchanged: 0/0
  1969 ;; Data sizes:     COMRAM   BANK0   BANK1   BANK2   BANK3   BANK4   BANK5   BANK6   BANK7   BANK8   BANK9  BANK10  BANK1
      +1  BANK12  BANK13  BANK14  BANK15
  1970 ;;      Params:         0       0       0       0       0       0       0       0       0       0       0       0       
      +0       0       0       0       0
  1971 ;;      Locals:         0       0       0       0       0       0       0       0       0       0       0       0       
      +0       0       0       0       0
  1972 ;;      Temps:          0       0       0       0       0       0       0       0       0       0       0       0       
      +0       0       0       0       0
  1973 ;;      Totals:         0       0       0       0       0       0       0       0       0       0       0       0       
      +0       0       0       0       0
  1974 ;;Total ram usage:        0 bytes
  1975 ;; Hardware stack levels used: 1
  1976 ;; This function calls:
  1977 ;;		Nothing
  1978 ;; This function is called by:
  1979 ;;		_InterruptManager
  1980 ;; This function uses a non-reentrant model
  1981 ;;
  1982                           
  1983                           	psect	text18
  1984   001542                     __ptext18:
  1985                           	callstack 0
  1986   001542                     _CCP2_ISR:
  1987                           	callstack 28
  1988   001542                     
  1989                           ;MCAL_Layer/CCP/hal_ccp.c: 353:     (PIR2bits.CCP2IF = 0);
  1990   001542  90A1               	bcf	161,0,c	;volatile
  1991   001544  0012               	return		;funcret
  1992   001546                     __end_of_CCP2_ISR:
  1993                           	callstack 0
  1994                           
  1995 ;; *************** function _CCP1_ISR *****************
  1996 ;; Defined at:
  1997 ;;		line 340 in file "MCAL_Layer/CCP/hal_ccp.c"
  1998 ;; Parameters:    Size  Location     Type
  1999 ;;		None
  2000 ;; Auto vars:     Size  Location     Type
  2001 ;;		None
  2002 ;; Return value:  Size  Location     Type
  2003 ;;                  1    wreg      void 
  2004 ;; Registers used:
  2005 ;;		None
  2006 ;; Tracked objects:
  2007 ;;		On entry : 0/0
  2008 ;;		On exit  : 0/0
  2009 ;;		Unchanged: 0/0
  2010 ;; Data sizes:     COMRAM   BANK0   BANK1   BANK2   BANK3   BANK4   BANK5   BANK6   BANK7   BANK8   BANK9  BANK10  BANK1
      +1  BANK12  BANK13  BANK14  BANK15
  2011 ;;      Params:         0       0       0       0       0       0       0       0       0       0       0       0       
      +0       0       0       0       0
  2012 ;;      Locals:         0       0       0       0       0       0       0       0       0       0       0       0       
      +0       0       0       0       0
  2013 ;;      Temps:          0       0       0       0       0       0       0       0       0       0       0       0       
      +0       0       0       0       0
  2014 ;;      Totals:         0       0       0       0       0       0       0       0       0       0       0       0       
      +0       0       0       0       0
  2015 ;;Total ram usage:        0 bytes
  2016 ;; Hardware stack levels used: 1
  2017 ;; This function calls:
  2018 ;;		Nothing
  2019 ;; This function is called by:
  2020 ;;		_InterruptManager
  2021 ;; This function uses a non-reentrant model
  2022 ;;
  2023                           
  2024                           	psect	text19
  2025   001546                     __ptext19:
  2026                           	callstack 0
  2027   001546                     _CCP1_ISR:
  2028                           	callstack 28
  2029   001546                     
  2030                           ;MCAL_Layer/CCP/hal_ccp.c: 341:     (PIR1bits.CCP1IF = 0);
  2031   001546  949E               	bcf	158,2,c	;volatile
  2032   001548  0012               	return		;funcret
  2033   00154A                     __end_of_CCP1_ISR:
  2034                           	callstack 0
  2035                           
  2036 ;; *************** function _ADC_ISR *****************
  2037 ;; Defined at:
  2038 ;;		line 351 in file "MCAL_Layer/ADC/hal_adc.c"
  2039 ;; Parameters:    Size  Location     Type
  2040 ;;		None
  2041 ;; Auto vars:     Size  Location     Type
  2042 ;;		None
  2043 ;; Return value:  Size  Location     Type
  2044 ;;                  1    wreg      void 
  2045 ;; Registers used:
  2046 ;;		None
  2047 ;; Tracked objects:
  2048 ;;		On entry : 0/0
  2049 ;;		On exit  : 0/0
  2050 ;;		Unchanged: 0/0
  2051 ;; Data sizes:     COMRAM   BANK0   BANK1   BANK2   BANK3   BANK4   BANK5   BANK6   BANK7   BANK8   BANK9  BANK10  BANK1
      +1  BANK12  BANK13  BANK14  BANK15
  2052 ;;      Params:         0       0       0       0       0       0       0       0       0       0       0       0       
      +0       0       0       0       0
  2053 ;;      Locals:         0       0       0       0       0       0       0       0       0       0       0       0       
      +0       0       0       0       0
  2054 ;;      Temps:          0       0       0       0       0       0       0       0       0       0       0       0       
      +0       0       0       0       0
  2055 ;;      Totals:         0       0       0       0       0       0       0       0       0       0       0       0       
      +0       0       0       0       0
  2056 ;;Total ram usage:        0 bytes
  2057 ;; Hardware stack levels used: 1
  2058 ;; This function calls:
  2059 ;;		Nothing
  2060 ;; This function is called by:
  2061 ;;		_InterruptManager
  2062 ;; This function uses a non-reentrant model
  2063 ;;
  2064                           
  2065                           	psect	text20
  2066   00154A                     __ptext20:
  2067                           	callstack 0
  2068   00154A                     _ADC_ISR:
  2069                           	callstack 28
  2070   00154A                     
  2071                           ;MCAL_Layer/ADC/hal_adc.c: 353:     (PIR1bits.ADIF = 0);
  2072   00154A  9C9E               	bcf	158,6,c	;volatile
  2073   00154C  0012               	return		;funcret
  2074   00154E                     __end_of_ADC_ISR:
  2075                           	callstack 0
  2076                           
  2077                           	psect	rparam
  2078   000000                     
  2079                           	psect	temp
  2080   00007A                     btemp:
  2081                           	callstack 0
  2082   00007A                     	ds	1
  2083   000000                     int$flags	set	btemp
  2084   000000                     wtemp8	set	btemp+1
  2085   000000                     ttemp5	set	btemp+1
  2086   000000                     ttemp6	set	btemp+4
  2087   000000                     ttemp7	set	btemp+8
  2088                           
  2089                           	psect	config
  2090                           
  2091                           ; Padding undefined space
  2092   300000                     	org	3145728
  2093   300000  FF                 	db	255
  2094                           
  2095                           ;Config register CONFIG1H @ 0x300001
  2096                           ;	Oscillator Selection bits
  2097                           ;	OSC = HS, HS oscillator
  2098                           ;	Fail-Safe Clock Monitor Enable bit
  2099                           ;	FCMEN = OFF, Fail-Safe Clock Monitor disabled
  2100                           ;	Internal/External Oscillator Switchover bit
  2101                           ;	IESO = OFF, Oscillator Switchover mode disabled
  2102   300001                     	org	3145729
  2103   300001  02                 	db	2
  2104                           
  2105                           ;Config register CONFIG2L @ 0x300002
  2106                           ;	Power-up Timer Enable bit
  2107                           ;	PWRT = OFF, PWRT disabled
  2108                           ;	Brown-out Reset Enable bits
  2109                           ;	BOREN = OFF, Brown-out Reset disabled in hardware and software
  2110                           ;	Brown Out Reset Voltage bits
  2111                           ;	BORV = 1, 
  2112   300002                     	org	3145730
  2113   300002  09                 	db	9
  2114                           
  2115                           ;Config register CONFIG2H @ 0x300003
  2116                           ;	Watchdog Timer Enable bit
  2117                           ;	WDT = OFF, WDT disabled (control is placed on the SWDTEN bit)
  2118                           ;	Watchdog Timer Postscale Select bits
  2119                           ;	WDTPS = 32768, 1:32768
  2120   300003                     	org	3145731
  2121   300003  1E                 	db	30
  2122                           
  2123                           ; Padding undefined space
  2124   300004                     	org	3145732
  2125   300004  FF                 	db	255
  2126                           
  2127                           ;Config register CONFIG3H @ 0x300005
  2128                           ;	CCP2 MUX bit
  2129                           ;	CCP2MX = PORTC, CCP2 input/output is multiplexed with RC1
  2130                           ;	PORTB A/D Enable bit
  2131                           ;	PBADEN = OFF, PORTB<4:0> pins are configured as digital I/O on Reset
  2132                           ;	Low-Power Timer1 Oscillator Enable bit
  2133                           ;	LPT1OSC = OFF, Timer1 configured for higher power operation
  2134                           ;	MCLR Pin Enable bit
  2135                           ;	MCLRE = ON, MCLR pin enabled; RE3 input pin disabled
  2136   300005                     	org	3145733
  2137   300005  81                 	db	129
  2138                           
  2139                           ;Config register CONFIG4L @ 0x300006
  2140                           ;	Stack Full/Underflow Reset Enable bit
  2141                           ;	STVREN = ON, Stack full/underflow will cause Reset
  2142                           ;	Single-Supply ICSP Enable bit
  2143                           ;	LVP = OFF, Single-Supply ICSP disabled
  2144                           ;	Extended Instruction Set Enable bit
  2145                           ;	XINST = OFF, Instruction set extension and Indexed Addressing mode disabled (Legacy mo
      +                          de)
  2146                           ;	Background Debugger Enable bit
  2147                           ;	DEBUG = 0x1, unprogrammed default
  2148   300006                     	org	3145734
  2149   300006  81                 	db	129
  2150                           
  2151                           ; Padding undefined space
  2152   300007                     	org	3145735
  2153   300007  FF                 	db	255
  2154                           
  2155                           ;Config register CONFIG5L @ 0x300008
  2156                           ;	Code Protection bit
  2157                           ;	CP0 = OFF, Block 0 (000800-003FFFh) not code-protected
  2158                           ;	Code Protection bit
  2159                           ;	CP1 = OFF, Block 1 (004000-007FFFh) not code-protected
  2160                           ;	Code Protection bit
  2161                           ;	CP2 = OFF, Block 2 (008000-00BFFFh) not code-protected
  2162                           ;	Code Protection bit
  2163                           ;	CP3 = OFF, Block 3 (00C000-00FFFFh) not code-protected
  2164   300008                     	org	3145736
  2165   300008  0F                 	db	15
  2166                           
  2167                           ;Config register CONFIG5H @ 0x300009
  2168                           ;	Boot Block Code Protection bit
  2169                           ;	CPB = OFF, Boot block (000000-0007FFh) not code-protected
  2170                           ;	Data EEPROM Code Protection bit
  2171                           ;	CPD = OFF, Data EEPROM not code-protected
  2172   300009                     	org	3145737
  2173   300009  C0                 	db	192
  2174                           
  2175                           ;Config register CONFIG6L @ 0x30000A
  2176                           ;	Write Protection bit
  2177                           ;	WRT0 = OFF, Block 0 (000800-003FFFh) not write-protected
  2178                           ;	Write Protection bit
  2179                           ;	WRT1 = OFF, Block 1 (004000-007FFFh) not write-protected
  2180                           ;	Write Protection bit
  2181                           ;	WRT2 = OFF, Block 2 (008000-00BFFFh) not write-protected
  2182                           ;	Write Protection bit
  2183                           ;	WRT3 = OFF, Block 3 (00C000-00FFFFh) not write-protected
  2184   30000A                     	org	3145738
  2185   30000A  0F                 	db	15
  2186                           
  2187                           ;Config register CONFIG6H @ 0x30000B
  2188                           ;	Configuration Register Write Protection bit
  2189                           ;	WRTC = OFF, Configuration registers (300000-3000FFh) not write-protected
  2190                           ;	Boot Block Write Protection bit
  2191                           ;	WRTB = OFF, Boot Block (000000-0007FFh) not write-protected
  2192                           ;	Data EEPROM Write Protection bit
  2193                           ;	WRTD = OFF, Data EEPROM not write-protected
  2194   30000B                     	org	3145739
  2195   30000B  E0                 	db	224
  2196                           
  2197                           ;Config register CONFIG7L @ 0x30000C
  2198                           ;	Table Read Protection bit
  2199                           ;	EBTR0 = OFF, Block 0 (000800-003FFFh) not protected from table reads executed in other
      +                           blocks
  2200                           ;	Table Read Protection bit
  2201                           ;	EBTR1 = OFF, Block 1 (004000-007FFFh) not protected from table reads executed in other
      +                           blocks
  2202                           ;	Table Read Protection bit
  2203                           ;	EBTR2 = OFF, Block 2 (008000-00BFFFh) not protected from table reads executed in other
      +                           blocks
  2204                           ;	Table Read Protection bit
  2205                           ;	EBTR3 = OFF, Block 3 (00C000-00FFFFh) not protected from table reads executed in other
      +                           blocks
  2206   30000C                     	org	3145740
  2207   30000C  0F                 	db	15
  2208                           
  2209                           ;Config register CONFIG7H @ 0x30000D
  2210                           ;	Boot Block Table Read Protection bit
  2211                           ;	EBTRB = OFF, Boot Block (000000-0007FFh) not protected from table reads executed in ot
      +                          her blocks
  2212   30000D                     	org	3145741
  2213   30000D  40                 	db	64
  2214                           tosu	equ	0xFFF
  2215                           tosh	equ	0xFFE
  2216                           tosl	equ	0xFFD
  2217                           stkptr	equ	0xFFC
  2218                           pclatu	equ	0xFFB
  2219                           pclath	equ	0xFFA
  2220                           pcl	equ	0xFF9
  2221                           tblptru	equ	0xFF8
  2222                           tblptrh	equ	0xFF7
  2223                           tblptrl	equ	0xFF6
  2224                           tablat	equ	0xFF5
  2225                           prodh	equ	0xFF4
  2226                           prodl	equ	0xFF3
  2227                           indf0	equ	0xFEF
  2228                           postinc0	equ	0xFEE
  2229                           postdec0	equ	0xFED
  2230                           preinc0	equ	0xFEC
  2231                           plusw0	equ	0xFEB
  2232                           fsr0h	equ	0xFEA
  2233                           fsr0l	equ	0xFE9
  2234                           wreg	equ	0xFE8
  2235                           indf1	equ	0xFE7
  2236                           postinc1	equ	0xFE6
  2237                           postdec1	equ	0xFE5
  2238                           preinc1	equ	0xFE4
  2239                           plusw1	equ	0xFE3
  2240                           fsr1h	equ	0xFE2
  2241                           fsr1l	equ	0xFE1
  2242                           bsr	equ	0xFE0
  2243                           indf2	equ	0xFDF
  2244                           postinc2	equ	0xFDE
  2245                           postdec2	equ	0xFDD
  2246                           preinc2	equ	0xFDC
  2247                           plusw2	equ	0xFDB
  2248                           fsr2h	equ	0xFDA
  2249                           fsr2l	equ	0xFD9
  2250                           status	equ	0xFD8

Data Sizes:
    Strings     3
    Constant    16
    Data        41
    BSS         95
    Persistent  0
    Stack       0

Auto Spaces:
    Space          Size  Autos    Used
    COMRAM          126      1     121
    BANK0           128      0      16
    BANK1           256      0       0
    BANK2           256      0       0
    BANK3           256      0       0
    BANK4           256      0       0
    BANK5           256      0       0
    BANK6           256      0       0
    BANK7           256      0       0
    BANK8           256      0       0
    BANK9           256      0       0
    BANK10          256      0       0
    BANK11          256      0       0
    BANK12          256      0       0
    BANK13          256      0       0
    BANK14          256      0       0
    BANK15          128      0       0

Pointer List with Targets:

    ADC_GetConversionResult@_adc$ADC_InterruptHandler	PTR FTN()void  size(2) Largest target is 0

    ADC_Init@_adc$ADC_InterruptHandler	PTR FTN()void  size(2) Largest target is 0

    ADC_InterruptHandler	PTR FTN()void  size(2) Largest target is 1
		 -> NULL(), 

    CCP1_InterruptHandler	PTR FTN()void  size(2) Largest target is 1
		 -> NULL(), 

    CCP2_InterruptHandler	PTR FTN()void  size(2) Largest target is 1
		 -> NULL(), 

    CCP_Capture_Mode_Config@_ccp_obj$CCP1_InterruptHandler	PTR FTN()void  size(2) Largest target is 0

    CCP_Capture_Mode_Config@_ccp_obj$CCP2_InterruptHandler	PTR FTN()void  size(2) Largest target is 0

    CCP_Compare_Mode_Config@_ccp_obj$CCP1_InterruptHandler	PTR FTN()void  size(2) Largest target is 0

    CCP_Compare_Mode_Config@_ccp_obj$CCP2_InterruptHandler	PTR FTN()void  size(2) Largest target is 0

    CCP_DeInit@_ccp_obj$CCP1_InterruptHandler	PTR FTN()void  size(2) Largest target is 0

    CCP_DeInit@_ccp_obj$CCP2_InterruptHandler	PTR FTN()void  size(2) Largest target is 0

    CCP_Init@_ccp_obj$CCP1_InterruptHandler	PTR FTN()void  size(2) Largest target is 0

    CCP_Init@_ccp_obj$CCP2_InterruptHandler	PTR FTN()void  size(2) Largest target is 0

    CCP_Interrupt_Config@_ccp_obj$CCP1_InterruptHandler	PTR FTN()void  size(2) Largest target is 0

    CCP_Interrupt_Config@_ccp_obj$CCP2_InterruptHandler	PTR FTN()void  size(2) Largest target is 0

    CCP_Mode_Timer_Select@_ccp_obj$CCP1_InterruptHandler	PTR FTN()void  size(2) Largest target is 0

    CCP_Mode_Timer_Select@_ccp_obj$CCP2_InterruptHandler	PTR FTN()void  size(2) Largest target is 0

    CCP_Pin_Config@_ccp_obj$CCP1_InterruptHandler	PTR FTN()void  size(2) Largest target is 0

    CCP_Pin_Config@_ccp_obj$CCP2_InterruptHandler	PTR FTN()void  size(2) Largest target is 0

    CCP_PWM_Mode_Config@_ccp_obj$CCP1_InterruptHandler	PTR FTN()void  size(2) Largest target is 0

    CCP_PWM_Mode_Config@_ccp_obj$CCP2_InterruptHandler	PTR FTN()void  size(2) Largest target is 0

    CCP_PWM_Set_Duty@_ccp_obj$CCP1_InterruptHandler	PTR FTN()void  size(2) Largest target is 0

    CCP_PWM_Set_Duty@_ccp_obj$CCP2_InterruptHandler	PTR FTN()void  size(2) Largest target is 0

    CCP_PWM_Start@_ccp_obj$CCP1_InterruptHandler	PTR FTN()void  size(2) Largest target is 0

    CCP_PWM_Start@_ccp_obj$CCP2_InterruptHandler	PTR FTN()void  size(2) Largest target is 0

    CCP_PWM_Stop@_ccp_obj$CCP1_InterruptHandler	PTR FTN()void  size(2) Largest target is 0

    CCP_PWM_Stop@_ccp_obj$CCP2_InterruptHandler	PTR FTN()void  size(2) Largest target is 0

    configure_voltage_reference@_adc$ADC_InterruptHandler	PTR FTN()void  size(2) Largest target is 0

    EUSART_ASYNC_RX_Init@_eusart$EUSART_FramingErrorHandler	PTR FTN()void  size(2) Largest target is 0

    EUSART_ASYNC_RX_Init@_eusart$EUSART_OverrunErrorHandler	PTR FTN()void  size(2) Largest target is 0

    EUSART_ASYNC_RX_Init@_eusart$EUSART_RxDefaultInterruptHandler	PTR FTN()void  size(2) Largest target is 0

    EUSART_ASYNC_RX_Init@_eusart$EUSART_TxDefaultInterruptHandler	PTR FTN()void  size(2) Largest target is 0

    EUSART_ASYNC_TX_Init@_eusart$EUSART_FramingErrorHandler	PTR FTN()void  size(2) Largest target is 0

    EUSART_ASYNC_TX_Init@_eusart$EUSART_OverrunErrorHandler	PTR FTN()void  size(2) Largest target is 0

    EUSART_ASYNC_TX_Init@_eusart$EUSART_RxDefaultInterruptHandler	PTR FTN()void  size(2) Largest target is 0

    EUSART_ASYNC_TX_Init@_eusart$EUSART_TxDefaultInterruptHandler	PTR FTN()void  size(2) Largest target is 0

    EUSART_Baud_Rate_Calculation@_eusart$EUSART_FramingErrorHandler	PTR FTN()void  size(2) Largest target is 0

    EUSART_Baud_Rate_Calculation@_eusart$EUSART_OverrunErrorHandler	PTR FTN()void  size(2) Largest target is 0

    EUSART_Baud_Rate_Calculation@_eusart$EUSART_RxDefaultInterruptHandler	PTR FTN()void  size(2) Largest target is 0

    EUSART_Baud_Rate_Calculation@_eusart$EUSART_TxDefaultInterruptHandler	PTR FTN()void  size(2) Largest target is 0

    EUSART_FramingErrorHandler	PTR FTN()void  size(2) Largest target is 1
		 -> NULL(), 

    EUSART_OverrunErrorHandler	PTR FTN()void  size(2) Largest target is 1
		 -> NULL(), 

    EUSART_RxInterruptHandler	PTR FTN()void  size(2) Largest target is 1
		 -> NULL(), 

    EUSART_TxInterruptHandler	PTR FTN()void  size(2) Largest target is 1
		 -> NULL(), 

    f$.$buffer	PTR unsigned char  size(2) Largest target is 0

    f$.$source	PTR const unsigned char  size(2) Largest target is 0

    I2C_DefaultInterruptHandle	PTR FTN()void  size(2) Largest target is 1
		 -> NULL(), 

    I2C_Master_Mode_Clock_Configurations@i2c_obj$I2C_DefaultInterruptHandler	PTR FTN()void  size(2) Largest target is 0

    I2C_Master_Mode_Clock_Configurations@i2c_obj$I2C_Report_Receive_Overflow	PTR FTN()void  size(2) Largest target is 0

    I2C_Master_Mode_Clock_Configurations@i2c_obj$I2C_Report_Write_Collision	PTR FTN()void  size(2) Largest target is 0

    I2C_Report_Receive_Overflow_InterruptHandle	PTR FTN()void  size(2) Largest target is 1
		 -> NULL(), 

    I2C_Report_Write_Collision_InterruptHandler	PTR FTN()void  size(2) Largest target is 1
		 -> NULL(), 

    I2C_Slave_Mode_Configurations@i2c_obj$I2C_DefaultInterruptHandler	PTR FTN()void  size(2) Largest target is 0

    I2C_Slave_Mode_Configurations@i2c_obj$I2C_Report_Receive_Overflow	PTR FTN()void  size(2) Largest target is 0

    I2C_Slave_Mode_Configurations@i2c_obj$I2C_Report_Write_Collision	PTR FTN()void  size(2) Largest target is 0

    INT0_InterruptHandler	PTR FTN()void  size(2) Largest target is 1
		 -> NULL(), 

    INT1_InterruptHandler	PTR FTN()void  size(2) Largest target is 1
		 -> NULL(), 

    INT2_InterruptHandler	PTR FTN()void  size(2) Largest target is 1
		 -> NULL(), 

    Interrupt_INTx_Clear_Flag@int_obj$EXT_InterruptHandler	PTR FTN()void  size(2) Largest target is 0

    Interrupt_INTx_Disable@int_obj$EXT_InterruptHandler	PTR FTN()void  size(2) Largest target is 0

    Interrupt_INTx_Edge_Init@int_obj$EXT_InterruptHandler	PTR FTN()void  size(2) Largest target is 0

    Interrupt_INTx_Enable@int_obj$EXT_InterruptHandler	PTR FTN()void  size(2) Largest target is 0

    Interrupt_INTx_Pin_Init@int_obj$EXT_InterruptHandler	PTR FTN()void  size(2) Largest target is 0

    Interrupt_INTx_SetInterruptHandler@int_obj$EXT_InterruptHandler	PTR FTN()void  size(2) Largest target is 0

    Interrupt_RBx_Init@int_obj$EXT_InterruptHandler_HIGH	PTR FTN()void  size(2) Largest target is 0

    Interrupt_RBx_Init@int_obj$EXT_InterruptHandler_LOW	PTR FTN()void  size(2) Largest target is 0

    LAT_REGESTERS	PTR volatile unsigned char [5] size(2) Largest target is 1
		 -> LATA(BITBIGSFRlllll[1]), LATB(BITBIGSFRllllh[1]), LATC(BITBIGSFRllllh[1]), LATD(BITBIGSFRllllh[1]), 
		 -> LATE(BITBIGSFRllllh[1]), 

    LM35_GetTemperatureCelsius@sensor$adc_config$ADC_InterruptHandler	PTR FTN()void  size(2) Largest target is 0

    LM35_GetTemperatureFahrenheit@sensor$adc_config$ADC_InterruptHandler	PTR FTN()void  size(2) Largest target is 0

    LM35_Init@sensor$adc_config$ADC_InterruptHandler	PTR FTN()void  size(2) Largest target is 0

    MSSP_I2C_Init@i2c_obj$I2C_DefaultInterruptHandler	PTR FTN()void  size(2) Largest target is 0

    MSSP_I2C_Init@i2c_obj$I2C_Report_Receive_Overflow	PTR FTN()void  size(2) Largest target is 0

    MSSP_I2C_Init@i2c_obj$I2C_Report_Write_Collision	PTR FTN()void  size(2) Largest target is 0

    MSSP_I2C_Interrupt_Configurations@i2c_obj$I2C_DefaultInterruptHandler	PTR FTN()void  size(2) Largest target is 0

    MSSP_I2C_Interrupt_Configurations@i2c_obj$I2C_Report_Receive_Overflow	PTR FTN()void  size(2) Largest target is 0

    MSSP_I2C_Interrupt_Configurations@i2c_obj$I2C_Report_Write_Collision	PTR FTN()void  size(2) Largest target is 0

    PORT_REGESTERS	PTR volatile unsigned char [5] size(2) Largest target is 1
		 -> PORTA(BITBIGSFRlllll[1]), PORTB(BITBIGSFRlllll[1]), PORTC(BITBIGSFRlllll[1]), PORTD(BITBIGSFRlllll[1]), 
		 -> PORTE(BITBIGSFRlllll[1]), 

    RB4_InterruptHandler_HIGH	PTR FTN()void  size(2) Largest target is 1
		 -> NULL(), 

    RB4_InterruptHandler_LOW	PTR FTN()void  size(2) Largest target is 1
		 -> NULL(), 

    RB5_InterruptHandler_HIGH	PTR FTN()void  size(2) Largest target is 1
		 -> NULL(), 

    RB5_InterruptHandler_LOW	PTR FTN()void  size(2) Largest target is 1
		 -> NULL(), 

    RB6_InterruptHandler_HIGH	PTR FTN()void  size(2) Largest target is 1
		 -> NULL(), 

    RB6_InterruptHandler_LOW	PTR FTN()void  size(2) Largest target is 1
		 -> NULL(), 

    RB7_InterruptHandler_HIGH	PTR FTN()void  size(2) Largest target is 1
		 -> NULL(), 

    RB7_InterruptHandler_LOW	PTR FTN()void  size(2) Largest target is 1
		 -> NULL(), 

    S1437$CCP1_InterruptHandler	PTR FTN()void  size(2) Largest target is 0

    S1437$CCP2_InterruptHandler	PTR FTN()void  size(2) Largest target is 0

    S2247$EXT_InterruptHandler	PTR FTN()void  size(2) Largest target is 0

    S2289$EXT_InterruptHandler_HIGH	PTR FTN()void  size(2) Largest target is 0

    S2289$EXT_InterruptHandler_LOW	PTR FTN()void  size(2) Largest target is 0

    S3114$TMR0_InterruptHandler	PTR FTN()void  size(2) Largest target is 0

    S3271$TMR1_InterruptHandler	PTR FTN()void  size(2) Largest target is 0

    S3455$TMR2_InterruptHandler	PTR FTN()void  size(2) Largest target is 0

    S3579$TMR3_InterruptHandler	PTR FTN()void  size(2) Largest target is 0

    S3765$EUSART_FramingErrorHandler	PTR FTN()void  size(2) Largest target is 0

    S3765$EUSART_OverrunErrorHandler	PTR FTN()void  size(2) Largest target is 0

    S3765$EUSART_RxDefaultInterruptHandler	PTR FTN()void  size(2) Largest target is 0

    S3765$EUSART_TxDefaultInterruptHandler	PTR FTN()void  size(2) Largest target is 0

    S4219$I2C_DefaultInterruptHandler	PTR FTN()void  size(2) Largest target is 0

    S4219$I2C_Report_Receive_Overflow	PTR FTN()void  size(2) Largest target is 0

    S4219$I2C_Report_Write_Collision	PTR FTN()void  size(2) Largest target is 0

    S5037$buffer	PTR unsigned char  size(2) Largest target is 0

    S5037$source	PTR const unsigned char  size(2) Largest target is 0

    S863$ADC_InterruptHandler	PTR FTN()void  size(2) Largest target is 0

    select_result_format@_adc$ADC_InterruptHandler	PTR FTN()void  size(2) Largest target is 0

    sp__memset	PTR void  size(2) Largest target is 0

    Timer0_Init@_timer$TMR0_InterruptHandler	PTR FTN()void  size(2) Largest target is 0

    Timer0_Mode_Select@_timer$TMR0_InterruptHandler	PTR FTN()void  size(2) Largest target is 0

    Timer0_Prescaler_Config@_timer$TMR0_InterruptHandler	PTR FTN()void  size(2) Largest target is 0

    Timer0_Register_Size_Config@_timer$TMR0_InterruptHandler	PTR FTN()void  size(2) Largest target is 0

    Timer1_Init@_timer$TMR1_InterruptHandler	PTR FTN()void  size(2) Largest target is 0

    Timer1_Mode_Select@_timer$TMR1_InterruptHandler	PTR FTN()void  size(2) Largest target is 0

    Timer2_Init@_timer$TMR2_InterruptHandler	PTR FTN()void  size(2) Largest target is 0

    Timer3_Init@_timer$TMR3_InterruptHandler	PTR FTN()void  size(2) Largest target is 0

    Timer3_Mode_Select@_timer$TMR3_InterruptHandler	PTR FTN()void  size(2) Largest target is 0

    TMR0_InterruptHandler	PTR FTN()void  size(2) Largest target is 1
		 -> NULL(), 

    TMR1_InterruptHandler	PTR FTN()volatile void  size(2) Largest target is 1
		 -> NULL(), 

    TMR2_InterruptHandler	PTR FTN()void  size(2) Largest target is 1
		 -> NULL(), 

    TMR3_InterruptHandler	PTR FTN()void  size(2) Largest target is 1
		 -> NULL(), 

    TRIS_REGESTERS	PTR volatile unsigned char [5] size(2) Largest target is 1
		 -> TRISA(BITBIGSFRlllll[1]), TRISB(ABS[1]), TRISC(ABS[1]), TRISD(ABS[1]), 
		 -> TRISE(ABS[1]), 

    vfprintf$0	PTR struct _IO_FILE size(1) Largest target is 12
		 -> sprintf@f(COMRAM[12]), 

    vfprintf$1	PTR const unsigned char  size(1) Largest target is 3
		 -> STR_1(CODE[3]), STR_2(CODE[3]), STR_3(CODE[3]), 

    vfprintf$2	PTR PTR void  size(1) Largest target is 1
		 -> sprintf@ap(COMRAM[1]), 


Critical Paths under _main in COMRAM

    None.

Critical Paths under _InterruptManager in COMRAM

    _InterruptManager->_RB4_ISR
    _InterruptManager->_RB5_ISR
    _InterruptManager->_RB6_ISR
    _InterruptManager->_RB7_ISR

Critical Paths under _main in BANK0

    None.

Critical Paths under _InterruptManager in BANK0

    None.

Critical Paths under _main in BANK1

    None.

Critical Paths under _InterruptManager in BANK1

    None.

Critical Paths under _main in BANK2

    None.

Critical Paths under _InterruptManager in BANK2

    None.

Critical Paths under _main in BANK3

    None.

Critical Paths under _InterruptManager in BANK3

    None.

Critical Paths under _main in BANK4

    None.

Critical Paths under _InterruptManager in BANK4

    None.

Critical Paths under _main in BANK5

    None.

Critical Paths under _InterruptManager in BANK5

    None.

Critical Paths under _main in BANK6

    None.

Critical Paths under _InterruptManager in BANK6

    None.

Critical Paths under _main in BANK7

    None.

Critical Paths under _InterruptManager in BANK7

    None.

Critical Paths under _main in BANK8

    None.

Critical Paths under _InterruptManager in BANK8

    None.

Critical Paths under _main in BANK9

    None.

Critical Paths under _InterruptManager in BANK9

    None.

Critical Paths under _main in BANK10

    None.

Critical Paths under _InterruptManager in BANK10

    None.

Critical Paths under _main in BANK11

    None.

Critical Paths under _InterruptManager in BANK11

    None.

Critical Paths under _main in BANK12

    None.

Critical Paths under _InterruptManager in BANK12

    None.

Critical Paths under _main in BANK13

    None.

Critical Paths under _InterruptManager in BANK13

    None.

Critical Paths under _main in BANK14

    None.

Critical Paths under _InterruptManager in BANK14

    None.

Critical Paths under _main in BANK15

    None.

Critical Paths under _InterruptManager in BANK15

    None.

Call Graph Tables:

 ---------------------------------------------------------------------------------
 (Depth) Function   	        Calls       Base Space   Used Autos Params    Refs
 ---------------------------------------------------------------------------------
 (0) _main                                                 1     1      0       0
              _application_intialize
 ---------------------------------------------------------------------------------
 (1) _application_intialize                                1     1      0       0
 ---------------------------------------------------------------------------------
 Estimated maximum stack depth 1
 ---------------------------------------------------------------------------------
 (Depth) Function   	        Calls       Base Space   Used Autos Params    Refs
 ---------------------------------------------------------------------------------
 (2) _InterruptManager                                     0     0      0     120
                            _ADC_ISR
                           _CCP1_ISR
                           _CCP2_ISR
                      _EUSART_RX_ISR
                      _EUSART_TX_ISR
                           _INT0_ISR
                           _INT1_ISR
                           _INT2_ISR
                    _MSSP_I2C_BC_ISR
                       _MSSP_I2C_ISR
                            _RB4_ISR
                            _RB5_ISR
                            _RB6_ISR
                            _RB7_ISR
                           _TMR0_ISR
                           _TMR1_ISR
                           _TMR2_ISR
                           _TMR3_ISR
 ---------------------------------------------------------------------------------
 (3) _TMR3_ISR                                             0     0      0       0
 ---------------------------------------------------------------------------------
 (3) _TMR2_ISR                                             0     0      0       0
 ---------------------------------------------------------------------------------
 (3) _TMR1_ISR                                             0     0      0       0
 ---------------------------------------------------------------------------------
 (3) _TMR0_ISR                                             0     0      0       0
 ---------------------------------------------------------------------------------
 (3) _RB7_ISR                                              1     1      0      30
                                              0 COMRAM     1     1      0
 ---------------------------------------------------------------------------------
 (3) _RB6_ISR                                              1     1      0      30
                                              0 COMRAM     1     1      0
 ---------------------------------------------------------------------------------
 (3) _RB5_ISR                                              1     1      0      30
                                              0 COMRAM     1     1      0
 ---------------------------------------------------------------------------------
 (3) _RB4_ISR                                              1     1      0      30
                                              0 COMRAM     1     1      0
 ---------------------------------------------------------------------------------
 (3) _MSSP_I2C_ISR                                         0     0      0       0
 ---------------------------------------------------------------------------------
 (3) _MSSP_I2C_BC_ISR                                      0     0      0       0
 ---------------------------------------------------------------------------------
 (3) _INT2_ISR                                             0     0      0       0
 ---------------------------------------------------------------------------------
 (3) _INT1_ISR                                             0     0      0       0
 ---------------------------------------------------------------------------------
 (3) _INT0_ISR                                             0     0      0       0
 ---------------------------------------------------------------------------------
 (3) _EUSART_TX_ISR                                        0     0      0       0
 ---------------------------------------------------------------------------------
 (3) _EUSART_RX_ISR                                        0     0      0       0
 ---------------------------------------------------------------------------------
 (3) _CCP2_ISR                                             0     0      0       0
 ---------------------------------------------------------------------------------
 (3) _CCP1_ISR                                             0     0      0       0
 ---------------------------------------------------------------------------------
 (3) _ADC_ISR                                              0     0      0       0
 ---------------------------------------------------------------------------------
 Estimated maximum stack depth 3
 ---------------------------------------------------------------------------------

 Call Graph Graphs:

 _main (ROOT)
   _application_intialize

 _InterruptManager (ROOT)
   _ADC_ISR
   _CCP1_ISR
   _CCP2_ISR
   _EUSART_RX_ISR
   _EUSART_TX_ISR
   _INT0_ISR
   _INT1_ISR
   _INT2_ISR
   _MSSP_I2C_BC_ISR
   _MSSP_I2C_ISR
   _RB4_ISR
   _RB5_ISR
   _RB6_ISR
   _RB7_ISR
   _TMR0_ISR
   _TMR1_ISR
   _TMR2_ISR
   _TMR3_ISR

 Address spaces:
Name               Size   Autos  Total    Cost      Usage
BIGRAM             F7F      0       0      49        0.0%
EEDATA             400      0       0       0        0.0%
BITBANK14          100      0       0      33        0.0%
BANK14             100      0       0      34        0.0%
BITBANK13          100      0       0      31        0.0%
BANK13             100      0       0      32        0.0%
BITBANK12          100      0       0      29        0.0%
BANK12             100      0       0      30        0.0%
BITBANK11          100      0       0      27        0.0%
BANK11             100      0       0      28        0.0%
BITBANK10          100      0       0      25        0.0%
BANK10             100      0       0      26        0.0%
BITBANK9           100      0       0      23        0.0%
BANK9              100      0       0      24        0.0%
BITBANK8           100      0       0      21        0.0%
BANK8              100      0       0      22        0.0%
BITBANK7           100      0       0      19        0.0%
BANK7              100      0       0      20        0.0%
BITBANK6           100      0       0      17        0.0%
BANK6              100      0       0      18        0.0%
BITBANK5           100      0       0      15        0.0%
BANK5              100      0       0      16        0.0%
BITBANK4           100      0       0      13        0.0%
BANK4              100      0       0      14        0.0%
BITBANK3           100      0       0      10        0.0%
BANK3              100      0       0      11        0.0%
BITBANK2           100      0       0       8        0.0%
BANK2              100      0       0       9        0.0%
BITBANK1           100      0       0       6        0.0%
BANK1              100      0       0       7        0.0%
BITBANK15           80      0       0      35        0.0%
BANK15              80      0       0      36        0.0%
BITBANK0            80      0       0       4        0.0%
BANK0               80      0      10       5       12.5%
BITCOMRAM           7E      0       0       0        0.0%
COMRAM              7E      1      79       1       96.0%
BITBIGSFRhlhhlh     18      0       0      38        0.0%
BITBIGSFRhh          D      0       0      37        0.0%
BITBIGSFRlllhh       6      0       0      46        0.0%
BITBIGSFRhlhhll      5      0       0      39        0.0%
BITBIGSFRllhllh      4      0       0      43        0.0%
BITBIGSFRllllh       4      0       0      47        0.0%
BITBIGSFRllhllh      4      0       0      44        0.0%
BITBIGSFRlllll       4      0       0      48        0.0%
BITBIGSFRllhllh      1      0       0      42        0.0%
BITBIGSFRllhlh       1      0       0      41        0.0%
BITBIGSFRllhh        1      0       0      40        0.0%
BITBIGSFRllhlll      1      0       0      45        0.0%
BIGSFR               0      0       0     200        0.0%
BITSFR               0      0       0     200        0.0%
SFR                  0      0       0     200        0.0%
STACK                0      0       0       2        0.0%
NULL                 0      0       0       0        0.0%
ABS                  0      0      89      12        0.0%
DATA                 0      0      89       3        0.0%
CODE                 0      0       0       0        0.0%


Microchip Technology PIC18 Macro Assembler V2.45 build 20230818022343 
Symbol Table                                                                                   Sun May 12 17:12:56 2024

                               ??_InterruptManager 007A                                        _SSPSTATbits 0FC7  
                                              _PR2 0FCB                          _RB5_InterruptHandler_HIGH 002B  
                                  __end_of_ADC_ISR 154E                                                wreg 0FE8  
                                  __end_of_RB4_ISR 14E8                                    __end_of_RB5_ISR 14CE  
                                  __end_of_RB6_ISR 14B4                                    __end_of_RB7_ISR 149A  
                                             l3072 154E                                               l1650 14EC  
                                             l1655 154E                                               l1649 14EC  
                                             l5566 14E8                                               l5568 14E8  
                                             STR_1 1011                                               _LATA 0F89  
                                             _LATB 0F8A                                               _LATC 0F8B  
                                             _LATD 0F8C                                               _LATE 0F8D  
                                             _TMR2 0FCC                            ??_application_intialize 007A  
                         _RB4_InterruptHandler_LOW 002D                                               _main 14E8  
                                 __end_of_CCP1_ISR 154A                                   __end_of_CCP2_ISR 1546  
                         _RB7_InterruptHandler_LOW 0021                                               fsr1l 0FE1  
                                             btemp 007A                                               start 000E  
                                     ___param_bank 0000                             button_initialize@F3060 0058  
                           keypad_initialize@F3062 0046                             keypad_initialize@F3064 0045  
                                 __end_of_INT0_ISR 153E                                   __end_of_INT1_ISR 153A  
                                 __end_of_INT2_ISR 1536                                      _EUSART_RX_ISR 1550  
                                    _LAT_REGESTERS 005A                                      _EUSART_TX_ISR 153E  
                                            ?_main 0079                                              _EEADR 0FA9  
                                            i2l534 154C                                              i2l633 1544  
                                            i2l628 1548                                              i2l914 153C  
                                            i2l924 1534                                              i2l919 1538  
                                            i2l935 14E6                                              i2l946 14CC  
                                            i2l957 14B2                                              i2l968 1498  
                                            _RCREG 0FAE                                relay_turn_off@F3062 003E  
                                            _TMR0H 0FD7                                              _TMR1H 0FCF  
                                            _TMR0L 0FD6                                              _TMR1L 0FCE  
                                            _TMR3H 0FB3                                              _TMR3L 0FB2  
                                            _SPBRG 0FAF                                              _PORTA 0F80  
                                            _PORTB 0F81                                              _PORTC 0F82  
                                            _PORTD 0F83                                              _PORTE 0F84  
                                            _TRISA 0F92                                              _TRISB 0F93  
                                            _TRISC 0F94                                              _TRISD 0F95  
                                            _TRISE 0F96                                              _TXREG 0FAD  
                                 __end_of_TMR0_ISR 1518                                   __end_of_TMR1_ISR 150C  
                                 __end_of_TMR2_ISR 152A                                   __end_of_TMR3_ISR 1500  
                                            tablat 0FF5                                              ttemp5 007B  
                                            ttemp6 007E                                              ttemp7 0082  
                                            status 0FD8                                              wtemp8 007B  
                                  __initialization 13FC                                       __end_of_main 14F4  
                                        ??_ADC_ISR 0079                                     ?_EUSART_RX_ISR 0079  
                                   ?_EUSART_TX_ISR 0079                                             ??_main 007A  
                                    __activetblptr 0003                              _TMR3_InterruptHandler 0015  
                                 led_turn_on@F3059 0043                                          ??_RB4_ISR 0079  
                                        ??_RB5_ISR 0079                                          ??_RB6_ISR 0079  
                                        ??_RB7_ISR 0079                         _EUSART_OverrunErrorHandler 000B  
                                           _ADRESH 0FC4                                             _EEADRH 0FAA  
                                           _ADRESL 0FC3                                             _EEDATA 0FA8  
                                           _CCPR1L 0FBE                                             _CCPR2L 0FBB  
                                           _EECON2 0FA7                                             i2l3000 1512  
                                           i2l1160 1100                                             i2l1152 1038  
                                           i2l1330 1516                                             i2l1170 1254  
                                           i2l1162 1144                                             i2l1154 1058  
                                           i2l3004 1500                                             i2l3012 1522  
                                           i2l3020 14FA                                             i2l1180 1318  
                                           i2l1172 1298                                             i2l1164 1188  
                                           i2l1156 1078                                             i2l3030 1550  
                                           i2l3006 1502                                             i2l1190 13B8  
                                           i2l1182 1338                                             i2l1174 12B8  
                                           i2l1166 11CC                                             i2l1158 10BC  
                                           i2l3024 153E                                             i2l3008 1506  
                                           i2l3016 14F4                                             i2l1192 13D8  
                                           i2l1184 1358                                             i2l1176 12D8  
                                           i2l1168 1210                                             i2l1505 14FE  
                                           i2l3042 152A                                             i2l1450 1528  
                                           i2l3018 14F6                                             i2l1186 1378  
                                           i2l1178 12F8                                             i2l1195 13F8  
                                           i2l1188 1398                                             i2l3046 152E  
                                           i2l1633 1540                                             i2l1642 1550  
                                           i2l1399 150A                                             i2l2900 14D2  
                                           i2l2920 14CC                                             i2l2912 14B6  
                                           i2l2906 14E6                                             i2l2914 14B8  
                                           i2l1795 152C                                             i2l2852 154A  
                                           i2l2940 1482                                             i2l2862 1542  
                                           i2l2934 14B2                                             i2l2926 149C  
                                           i2l2942 1484                                             i2l1799 1530  
                                           i2l2856 1546                                             i2l2880 153A  
                                           i2l2928 149E                                             i2l2892 1532  
                                           i2l2948 1498                                             i2l4900 120A  
                                           i2l2886 1536                                             i2l4910 124E  
                                           i2l4902 121E                                             i2l4830 1026  
                                           i2l4920 1292                                             i2l4912 1262  
                                           i2l4904 122C                                             i2l4840 1074  
                                           i2l4832 1034                                             i2l2898 14D0  
                                           i2l4930 12E6                                             i2l4922 12A6  
                                           i2l4914 1270                                             i2l4906 123A  
                                           i2l4850 10B6                                             i2l4842 1086  
                                           i2l4834 1046                                             i2l2996 150C  
                                           i2l4940 1334                                             i2l4932 12F4  
                                           i2l4924 12B4                                             i2l4916 127E  
                                           i2l4908 124A                                             i2l4860 10FA  
                                           i2l4852 10CA                                             i2l4844 1094  
                                           i2l4836 1054                                             i2l4828 1018  
                                           i2l2998 150E                                             i2l4950 1386  
                                           i2l4942 1346                                             i2l4934 1306  
                                           i2l4926 12C6                                             i2l4918 128E  
                                           i2l4870 113E                                             i2l4862 110E  
                                           i2l4854 10D8                                             i2l4846 10A2  
                                           i2l4838 1066                                             i2l4960 13D4  
                                           i2l4952 1394                                             i2l4944 1354  
                                           i2l4936 1314                                             i2l4928 12D4  
                                           i2l4880 1182                                             i2l4872 1152  
                                           i2l4864 111C                                             i2l4856 10E6  
                                           i2l4848 10B2                                             i2l4962 13E6  
                                           i2l4954 13A6                                             i2l4946 1366  
                                           i2l4938 1326                                             i2l4890 11C6  
                                           i2l4882 1196                                             i2l4874 1160  
                                           i2l4866 112A                                             i2l4858 10F6  
                                           i2l4964 13F4                                             i2l4956 13B4  
                                           i2l4948 1374                                             i2l4892 11DA  
                                           i2l4884 11A4                                             i2l4876 116E  
                                           i2l4868 113A                                             i2l4958 13C6  
                                           i2l4894 11E8                                             i2l4886 11B2  
                                           i2l4878 117E                                             i2l4896 11F6  
                                           i2l4888 11C2                                             i2l4898 1206  
                                           _SPBRGH 0FB0                                             _SSPADD 0FC8  
                                           _SSPBUF 0FC9                                             clear_0 1450  
                                           isa$std 0001                         lcd_8bit_send_command@F3192 0052  
      _I2C_Report_Receive_Overflow_InterruptHandle 0005                                          ?_CCP1_ISR 0079  
                                     __pdataCOMRAM 005A                                          ?_CCP2_ISR 0079  
                                     __mediumconst 0000                                             tblptrh 0FF7  
                                           tblptrl 0FF6                                             tblptru 0FF8  
                                       __accesstop 0080                            __end_of__initialization 1456  
                                        ?_INT0_ISR 0079                                          ?_INT1_ISR 0079  
                                        ?_INT2_ISR 0079                                      ___rparam_used 0001  
                                RB5_ISR@RB5_Source 0079                                     __pcstackCOMRAM 0079  
                       _I2C_DefaultInterruptHandle 0007                                       __pidataBANK0 1518  
                                        ?_TMR0_ISR 0079                                    ??_EUSART_RX_ISR 0079  
                                        ?_TMR1_ISR 0079                                          ?_TMR2_ISR 0079  
                                        ?_TMR3_ISR 0079                                    ??_EUSART_TX_ISR 0079  
                                       ??_CCP1_ISR 0079                                         ??_CCP2_ISR 0079  
                          lcd_4bit_intialize@F3142 0056                                         __pbssBANK0 008A  
                            _INT0_InterruptHandler 0035                                         ??_INT0_ISR 0079  
                                       ??_INT1_ISR 0079                                         ??_INT2_ISR 0079  
                     lcd_8bit_send_char_data@F3200 0051                      __end_of_application_intialize 1550  
                             relay_intialize@F3052 0040                             button_read_state@F3067 0057  
                                       ??_TMR0_ISR 0079                                         ??_TMR1_ISR 0079  
                                       ??_TMR2_ISR 0079                                         ??_TMR3_ISR 0079  
                                led_turn_off@F3064 0042                                            _ADC_ISR 154A  
                                  led_toggle@F3069 0041                           dc_motor_move_right@F3064 004C  
                         dc_motor_move_right@F3066 004B                                  RB7_ISR@RB7_Source 0079  
                                          _RB4_ISR 14CE                                            _RB5_ISR 14B4  
                                          _RB6_ISR 149A                                            _RB7_ISR 1480  
                        _RB6_InterruptHandler_HIGH 0027                                      ?_MSSP_I2C_ISR 0079  
                                          i2u40_40 14E2                                            i2u40_41 14DE  
                                          i2u41_40 14C8                                            i2u41_41 14C4  
                                          i2u42_40 14AE                                            i2u42_41 14AA  
                                          i2u43_40 1494                                            i2u43_41 1490  
                                       _btn_values 1001                           _RB6_InterruptHandler_LOW 0025  
                                ??_MSSP_I2C_BC_ISR 0079                               _ADC_InterruptHandler 003B  
                                          __Hparam 0000                                            __Lparam 0000  
                                     __psmallconst 1000                                            __pcinit 13FC  
                                          __ramtop 1000                                            __ptext0 14E8  
                                          __ptext1 154E                                            __ptext3 14F4  
                                          __ptext4 1522                                            __ptext5 1500  
                                          __ptext6 150C                                            __ptext7 1480  
                                          __ptext8 149A                                            __ptext9 14B4  
                  seven_segment_write_number@F3065 0001                                          _T0CONbits 0FD5  
                                        _T1CONbits 0FCD                                     ??_MSSP_I2C_ISR 0079  
                                        _T2CONbits 0FCA                                          _T3CONbits 0FB1  
                                   __pintcode_body 1016                               end_of_initialization 1456  
                          dc_motor_intialize@F3057 004E                            dc_motor_intialize@F3059 004D  
                                          int_func 1016                                 dc_motor_stop@F3080 0047  
                               dc_motor_stop@F3078 0048                                          _RCSTAbits 0FAB  
                                          postdec1 0FE5                                            postinc0 0FEE  
                            _INT1_InterruptHandler 0033                                          _PORTBbits 0F81  
                                 _InterruptManager 0008                                          _TRISCbits 0F94  
                 lcd_8bit_send_enable_signal@F3255 004F                                        _CCP1CONbits 0FBD  
                                      _CCP2CONbits 0FBA                                          _TXSTAbits 0FAC  
                               relay_turn_on@F3057 003F                      convert_uint16_to_string@F3234 008A  
                                      _BAUDCONbits 0FB8                                      __pidataCOMRAM 1460  
                                   _timer0_preload 001D                                     _timer1_preload 0019  
                                   _timer2_preload 003D                                     _PORT_REGESTERS 0080  
                              start_initialization 13FC                                     _timer3_preload 0013  
MSSP_SPI_Msster_Mode_GPIO_PIN_Configurations@F3102 0074   MSSP_SPI_Slave_Mode_GPIO_PIN_Configurations@F3111 0071  
MSSP_SPI_Msster_Mode_GPIO_PIN_Configurations@F3104 0073   MSSP_SPI_Slave_Mode_GPIO_PIN_Configurations@F3113 0070  
MSSP_SPI_Msster_Mode_GPIO_PIN_Configurations@F3106 0072   MSSP_SPI_Slave_Mode_GPIO_PIN_Configurations@F3115 006F  
 MSSP_SPI_Slave_Mode_GPIO_PIN_Configurations@F3117 006E                          _EUSART_RxInterruptHandler 000F  
                          dc_motor_move_left@F3071 004A                            dc_motor_move_left@F3073 0049  
                             __end_of_MSSP_I2C_ISR 152E                         _EUSART_FramingErrorHandler 000D  
                                      __pdataBANK0 0080                                           ?_ADC_ISR 0079  
                            __end_of_EUSART_RX_ISR 1552                              __end_of_EUSART_TX_ISR 1542  
                                         ?_RB4_ISR 0079                                           ?_RB5_ISR 0079  
                                         ?_RB6_ISR 0079                                           ?_RB7_ISR 0079  
                                      __pbssCOMRAM 0001        _I2C_Report_Write_Collision_InterruptHandler 0009  
                     seven_segment_intialize@F3059 0059                                    _MSSP_I2C_BC_ISR 152E  
                 lcd_4bit_send_enable_signal@F3250 0050                              _INT2_InterruptHandler 0031  
                            _TMR0_InterruptHandler 001F                              _application_intialize 154E  
                                        __pintcode 0008                                        __smallconst 1000  
                        _RB4_InterruptHandler_HIGH 002F                                           _CCP1_ISR 1546  
                                         _CCP2_ISR 1542                          _RB7_InterruptHandler_HIGH 0023  
                         _RB5_InterruptHandler_LOW 0029                                           _INT0_ISR 153A  
                                         _INT1_ISR 1536                                           _INT2_ISR 1532  
                                         _RB4_Flag 0078                                           _RB5_Flag 0077  
                                         _RB6_Flag 0076                                           _RB7_Flag 0075  
                                RB4_ISR@RB4_Source 0079                           __end_of_InterruptManager 13FC  
                                         _PIE1bits 0F9D                                           _PIE2bits 0FA0  
                                         i2u220_40 1054                                           i2u220_41 1050  
                                         i2u221_40 1066                                           i2u221_41 1062  
                                         i2u230_40 10F6                                           i2u222_40 1074  
                                         i2u230_41 10F2                                           i2u222_41 1070  
                                         i2u231_40 110E                                           i2u223_40 1086  
                                         i2u231_41 110A                                           i2u223_41 1082  
                                         i2u240_40 11A4                                           i2u232_40 111C  
                                         i2u224_40 1094                                           i2u240_41 11A0  
                                         i2u232_41 1118                                           i2u224_41 1090  
                                         i2u241_40 11B2                                           i2u233_40 112A  
                                         i2u225_40 10A2                                           i2u217_40 1026  
                                         i2u241_41 11AE                                           i2u233_41 1126  
                                         i2u225_41 109E                                           i2u217_41 1022  
                                         i2u250_40 124A                                           i2u242_40 11C2  
                                         i2u234_40 113A                                           i2u226_40 10B2  
                                         i2u218_40 1034                                           i2u250_41 1246  
                                         i2u242_41 11BE                                           i2u234_41 1136  
                                         i2u226_41 10AE                                           i2u218_41 1030  
                                         i2u251_40 1262                                           i2u243_40 11DA  
                                         i2u235_40 1152                                           i2u227_40 10CA  
                                         i2u219_40 1046                                           i2u251_41 125E  
                                         i2u243_41 11D6                                           i2u235_41 114E  
                                         i2u227_41 10C6                                           i2u219_41 1042  
                                         i2u260_40 12F4                                           i2u252_40 1270  
                                         i2u244_40 11E8                                           i2u236_40 1160  
                                         i2u228_40 10D8                                           i2u260_41 12F0  
                                         i2u252_41 126C                                           i2u244_41 11E4  
                                         i2u236_41 115C                                           i2u228_41 10D4  
                                         i2u261_40 1306                                           i2u253_40 127E  
                                         i2u245_40 11F6                                           i2u237_40 116E  
                                         i2u229_40 10E6                                           i2u261_41 1302  
                                         i2u253_41 127A                                           i2u245_41 11F2  
                                         i2u237_41 116A                                           i2u229_41 10E2  
                                         i2u270_40 1394                                           i2u262_40 1314  
                                         i2u254_40 128E                                           i2u246_40 1206  
                                         i2u238_40 117E                                           i2u270_41 1390  
                                         i2u262_41 1310                                           i2u254_41 128A  
                                         i2u246_41 1202                                           i2u238_41 117A  
                                         i2u271_40 13A6                                           i2u263_40 1326  
                                         i2u255_40 12A6                                           i2u247_40 121E  
                                         i2u239_40 1196                                           i2u271_41 13A2  
                                         i2u263_41 1322                                           i2u255_41 12A2  
                                         i2u247_41 121A                                           i2u239_41 1192  
                                         i2u272_40 13B4                                           i2u264_40 1334  
                                         i2u256_40 12B4                                           i2u248_40 122C  
                                         i2u272_41 13B0                                           i2u264_41 1330  
                                         i2u256_41 12B0                                           i2u248_41 1228  
                                         i2u273_40 13C6                                           i2u265_40 1346  
                                         i2u257_40 12C6                                           i2u249_40 123A  
                                         i2u273_41 13C2                                           i2u265_41 1342  
                                         i2u257_41 12C2                                           i2u249_41 1236  
                                         _PIR1bits 0F9E                                           i2u274_40 13D4  
                                         i2u266_40 1354                                           i2u258_40 12D4  
                                         i2u274_41 13D0                                           i2u266_41 1350  
                                         i2u258_41 12D0                                           i2u275_40 13E6  
                                         i2u267_40 1366                                           i2u259_40 12E6  
                                         i2u275_41 13E2                                           i2u267_41 1362  
                                         i2u259_41 12E2                                           _PIR2bits 0FA1  
                                         i2u276_40 13F4                                           i2u268_40 1374  
                                         i2u276_41 13F0                                           i2u268_41 1370  
                                         i2u269_40 1386                                           i2u269_41 1382  
                                         _TMR0_ISR 150C                                           _TMR1_ISR 1500  
                                         _TMR2_ISR 1522                                           _TMR3_ISR 14F4  
                                       _ADCON0bits 0FC2                                         _ADCON1bits 0FC1  
                                       _ADCON2bits 0FC0                            __end_of_MSSP_I2C_BC_ISR 1532  
                                      _INTCON2bits 0FF1                                        _INTCON3bits 0FF0  
                                        copy_data0 1410                                          copy_data1 1430  
                                       _EECON1bits 0FA6                             ?_application_intialize 0079  
                                         __Hrparam 0000                                           __Lrparam 0000  
                                RB6_ISR@RB6_Source 0079                              _CCP1_InterruptHandler 0039  
                               __end_of_btn_values 1011                              _TMR1_InterruptHandler 001B  
                               led_intialize@F3054 0044                                       _MSSP_I2C_ISR 152A  
                                         __ptext10 14CE                                           __ptext11 152A  
                                         __ptext20 154A                                           __ptext12 152E  
                                         __ptext13 1532                                           __ptext14 1536  
                                         __ptext15 153A                                           __ptext16 153E  
                                         __ptext17 1550                                           __ptext18 1542  
                                         __ptext19 1546                                           isa$xinst 0000  
                                         int$flags 007A                         lcd_4bit_send_command@F3148 0055  
                                 ?_MSSP_I2C_BC_ISR 0079                                         _INTCONbits 0FF2  
                                         intlevel2 0000                          _EUSART_TxInterruptHandler 0011  
                     lcd_4bit_send_char_data@F3154 0054                            lcd_8bit_intialize@F3184 0053  
                                      _SSPCON1bits 0FC6                                        _SSPCON2bits 0FC5  
                            _CCP2_InterruptHandler 0037                                     _TRIS_REGESTERS 0064  
                            _TMR2_InterruptHandler 0017                                  ?_InterruptManager 0079  
